ARM GAS  C:\Users\Larry\AppData\Local\Temp\cceDrtmg.s 			page 1


   1              		.syntax unified
   2              		.cpu cortex-m0
   3              		.fpu softvfp
   4              		.eabi_attribute 20, 1
   5              		.eabi_attribute 21, 1
   6              		.eabi_attribute 23, 3
   7              		.eabi_attribute 24, 1
   8              		.eabi_attribute 25, 1
   9              		.eabi_attribute 26, 1
  10              		.eabi_attribute 30, 6
  11              		.eabi_attribute 34, 0
  12              		.eabi_attribute 18, 4
  13              		.thumb
  14              		.syntax unified
  15              		.file	"cyfitter_cfg.c"
  16              		.text
  17              	.Ltext0:
  18              		.cfi_sections	.debug_frame
  19              		.section	.text.CYMEMZERO,"ax",%progbits
  20              		.align	2
  21              		.code	16
  22              		.thumb_func
  23              		.type	CYMEMZERO, %function
  24              	CYMEMZERO:
  25              	.LFB0:
  26              		.file 1 "Generated_Source\\PSoC4\\cyfitter_cfg.c"
   1:Generated_Source\PSoC4/cyfitter_cfg.c **** 
   2:Generated_Source\PSoC4/cyfitter_cfg.c **** /*******************************************************************************
   3:Generated_Source\PSoC4/cyfitter_cfg.c **** * File Name: cyfitter_cfg.c
   4:Generated_Source\PSoC4/cyfitter_cfg.c **** * 
   5:Generated_Source\PSoC4/cyfitter_cfg.c **** * PSoC Creator  4.2
   6:Generated_Source\PSoC4/cyfitter_cfg.c **** *
   7:Generated_Source\PSoC4/cyfitter_cfg.c **** * Description:
   8:Generated_Source\PSoC4/cyfitter_cfg.c **** * This file contains device initialization code.
   9:Generated_Source\PSoC4/cyfitter_cfg.c **** * Except for the user defined sections in CyClockStartupError(), this file should not be modified.
  10:Generated_Source\PSoC4/cyfitter_cfg.c **** * This file is automatically generated by PSoC Creator.
  11:Generated_Source\PSoC4/cyfitter_cfg.c **** *
  12:Generated_Source\PSoC4/cyfitter_cfg.c **** ********************************************************************************
  13:Generated_Source\PSoC4/cyfitter_cfg.c **** * Copyright (c) 2007-2018 Cypress Semiconductor.  All rights reserved.
  14:Generated_Source\PSoC4/cyfitter_cfg.c **** * You may use this file only in accordance with the license, terms, conditions, 
  15:Generated_Source\PSoC4/cyfitter_cfg.c **** * disclaimers, and limitations in the end user license agreement accompanying 
  16:Generated_Source\PSoC4/cyfitter_cfg.c **** * the software package with which this file was provided.
  17:Generated_Source\PSoC4/cyfitter_cfg.c **** ********************************************************************************/
  18:Generated_Source\PSoC4/cyfitter_cfg.c **** 
  19:Generated_Source\PSoC4/cyfitter_cfg.c **** #include <string.h>
  20:Generated_Source\PSoC4/cyfitter_cfg.c **** #include "cytypes.h"
  21:Generated_Source\PSoC4/cyfitter_cfg.c **** #include "cydevice_trm.h"
  22:Generated_Source\PSoC4/cyfitter_cfg.c **** #include "cyfitter.h"
  23:Generated_Source\PSoC4/cyfitter_cfg.c **** #include "CyLib.h"
  24:Generated_Source\PSoC4/cyfitter_cfg.c **** #include "CyLFClk.h"
  25:Generated_Source\PSoC4/cyfitter_cfg.c **** #include "cyfitter_cfg.h"
  26:Generated_Source\PSoC4/cyfitter_cfg.c **** #include "cyapicallbacks.h"
  27:Generated_Source\PSoC4/cyfitter_cfg.c **** 
  28:Generated_Source\PSoC4/cyfitter_cfg.c **** 
  29:Generated_Source\PSoC4/cyfitter_cfg.c **** #if defined(__GNUC__) || defined(__ARMCC_VERSION)
  30:Generated_Source\PSoC4/cyfitter_cfg.c ****     #define CYPACKED 
  31:Generated_Source\PSoC4/cyfitter_cfg.c ****     #define CYPACKED_ATTR __attribute__ ((packed))
ARM GAS  C:\Users\Larry\AppData\Local\Temp\cceDrtmg.s 			page 2


  32:Generated_Source\PSoC4/cyfitter_cfg.c ****     #define CYALIGNED __attribute__ ((aligned))
  33:Generated_Source\PSoC4/cyfitter_cfg.c ****     #define CY_CFG_UNUSED __attribute__ ((unused))
  34:Generated_Source\PSoC4/cyfitter_cfg.c ****     #ifndef CY_CFG_SECTION
  35:Generated_Source\PSoC4/cyfitter_cfg.c ****         #define CY_CFG_SECTION __attribute__ ((section(".psocinit")))
  36:Generated_Source\PSoC4/cyfitter_cfg.c ****     #endif
  37:Generated_Source\PSoC4/cyfitter_cfg.c ****     
  38:Generated_Source\PSoC4/cyfitter_cfg.c ****     #if defined(__ARMCC_VERSION)
  39:Generated_Source\PSoC4/cyfitter_cfg.c ****         #define CY_CFG_MEMORY_BARRIER() __memory_changed()
  40:Generated_Source\PSoC4/cyfitter_cfg.c ****     #else
  41:Generated_Source\PSoC4/cyfitter_cfg.c ****         #define CY_CFG_MEMORY_BARRIER() __sync_synchronize()
  42:Generated_Source\PSoC4/cyfitter_cfg.c ****     #endif
  43:Generated_Source\PSoC4/cyfitter_cfg.c ****     
  44:Generated_Source\PSoC4/cyfitter_cfg.c **** #elif defined(__ICCARM__)
  45:Generated_Source\PSoC4/cyfitter_cfg.c ****     #include <intrinsics.h>
  46:Generated_Source\PSoC4/cyfitter_cfg.c **** 
  47:Generated_Source\PSoC4/cyfitter_cfg.c ****     #define CYPACKED __packed
  48:Generated_Source\PSoC4/cyfitter_cfg.c ****     #define CYPACKED_ATTR 
  49:Generated_Source\PSoC4/cyfitter_cfg.c ****     #define CYALIGNED _Pragma("data_alignment=4")
  50:Generated_Source\PSoC4/cyfitter_cfg.c ****     #define CY_CFG_UNUSED _Pragma("diag_suppress=Pe177")
  51:Generated_Source\PSoC4/cyfitter_cfg.c ****     #define CY_CFG_SECTION _Pragma("location=\".psocinit\"")
  52:Generated_Source\PSoC4/cyfitter_cfg.c ****     
  53:Generated_Source\PSoC4/cyfitter_cfg.c ****     #define CY_CFG_MEMORY_BARRIER() __DMB()
  54:Generated_Source\PSoC4/cyfitter_cfg.c ****     
  55:Generated_Source\PSoC4/cyfitter_cfg.c **** #else
  56:Generated_Source\PSoC4/cyfitter_cfg.c ****     #error Unsupported toolchain
  57:Generated_Source\PSoC4/cyfitter_cfg.c **** #endif
  58:Generated_Source\PSoC4/cyfitter_cfg.c **** 
  59:Generated_Source\PSoC4/cyfitter_cfg.c **** #ifndef CYCODE
  60:Generated_Source\PSoC4/cyfitter_cfg.c ****     #define CYCODE
  61:Generated_Source\PSoC4/cyfitter_cfg.c **** #endif
  62:Generated_Source\PSoC4/cyfitter_cfg.c **** #ifndef CYDATA
  63:Generated_Source\PSoC4/cyfitter_cfg.c ****     #define CYDATA
  64:Generated_Source\PSoC4/cyfitter_cfg.c **** #endif
  65:Generated_Source\PSoC4/cyfitter_cfg.c **** #ifndef CYFAR
  66:Generated_Source\PSoC4/cyfitter_cfg.c ****     #define CYFAR
  67:Generated_Source\PSoC4/cyfitter_cfg.c **** #endif
  68:Generated_Source\PSoC4/cyfitter_cfg.c **** #ifndef CYXDATA
  69:Generated_Source\PSoC4/cyfitter_cfg.c ****     #define CYXDATA
  70:Generated_Source\PSoC4/cyfitter_cfg.c **** #endif
  71:Generated_Source\PSoC4/cyfitter_cfg.c **** 
  72:Generated_Source\PSoC4/cyfitter_cfg.c **** 
  73:Generated_Source\PSoC4/cyfitter_cfg.c **** CY_CFG_UNUSED
  74:Generated_Source\PSoC4/cyfitter_cfg.c **** static void CYMEMZERO(void *s, size_t n);
  75:Generated_Source\PSoC4/cyfitter_cfg.c **** CY_CFG_UNUSED
  76:Generated_Source\PSoC4/cyfitter_cfg.c **** static void CYMEMZERO(void *s, size_t n)
  77:Generated_Source\PSoC4/cyfitter_cfg.c **** {
  27              		.loc 1 77 0
  28              		.cfi_startproc
  29              		@ args = 0, pretend = 0, frame = 8
  30              		@ frame_needed = 1, uses_anonymous_args = 0
  31 0000 80B5     		push	{r7, lr}
  32              		.cfi_def_cfa_offset 8
  33              		.cfi_offset 7, -8
  34              		.cfi_offset 14, -4
  35 0002 82B0     		sub	sp, sp, #8
  36              		.cfi_def_cfa_offset 16
  37 0004 00AF     		add	r7, sp, #0
ARM GAS  C:\Users\Larry\AppData\Local\Temp\cceDrtmg.s 			page 3


  38              		.cfi_def_cfa_register 7
  39 0006 7860     		str	r0, [r7, #4]
  40 0008 3960     		str	r1, [r7]
  78:Generated_Source\PSoC4/cyfitter_cfg.c **** 	(void)memset(s, 0, n);
  41              		.loc 1 78 0
  42 000a 3A68     		ldr	r2, [r7]
  43 000c 7B68     		ldr	r3, [r7, #4]
  44 000e 0021     		movs	r1, #0
  45 0010 1800     		movs	r0, r3
  46 0012 FFF7FEFF 		bl	memset
  79:Generated_Source\PSoC4/cyfitter_cfg.c **** }
  47              		.loc 1 79 0
  48 0016 C046     		nop
  49 0018 BD46     		mov	sp, r7
  50 001a 02B0     		add	sp, sp, #8
  51              		@ sp needed
  52 001c 80BD     		pop	{r7, pc}
  53              		.cfi_endproc
  54              	.LFE0:
  55              		.size	CYMEMZERO, .-CYMEMZERO
  56 001e C046     		.section	.text.CYCONFIGCPY,"ax",%progbits
  57              		.align	2
  58              		.code	16
  59              		.thumb_func
  60              		.type	CYCONFIGCPY, %function
  61              	CYCONFIGCPY:
  62              	.LFB1:
  80:Generated_Source\PSoC4/cyfitter_cfg.c **** CY_CFG_UNUSED
  81:Generated_Source\PSoC4/cyfitter_cfg.c **** static void CYCONFIGCPY(void *dest, const void *src, size_t n);
  82:Generated_Source\PSoC4/cyfitter_cfg.c **** CY_CFG_UNUSED
  83:Generated_Source\PSoC4/cyfitter_cfg.c **** static void CYCONFIGCPY(void *dest, const void *src, size_t n)
  84:Generated_Source\PSoC4/cyfitter_cfg.c **** {
  63              		.loc 1 84 0
  64              		.cfi_startproc
  65              		@ args = 0, pretend = 0, frame = 16
  66              		@ frame_needed = 1, uses_anonymous_args = 0
  67 0000 80B5     		push	{r7, lr}
  68              		.cfi_def_cfa_offset 8
  69              		.cfi_offset 7, -8
  70              		.cfi_offset 14, -4
  71 0002 84B0     		sub	sp, sp, #16
  72              		.cfi_def_cfa_offset 24
  73 0004 00AF     		add	r7, sp, #0
  74              		.cfi_def_cfa_register 7
  75 0006 F860     		str	r0, [r7, #12]
  76 0008 B960     		str	r1, [r7, #8]
  77 000a 7A60     		str	r2, [r7, #4]
  85:Generated_Source\PSoC4/cyfitter_cfg.c **** 	(void)memcpy(dest, src, n);
  78              		.loc 1 85 0
  79 000c 7A68     		ldr	r2, [r7, #4]
  80 000e B968     		ldr	r1, [r7, #8]
  81 0010 FB68     		ldr	r3, [r7, #12]
  82 0012 1800     		movs	r0, r3
  83 0014 FFF7FEFF 		bl	memcpy
  86:Generated_Source\PSoC4/cyfitter_cfg.c **** }
  84              		.loc 1 86 0
  85 0018 C046     		nop
ARM GAS  C:\Users\Larry\AppData\Local\Temp\cceDrtmg.s 			page 4


  86 001a BD46     		mov	sp, r7
  87 001c 04B0     		add	sp, sp, #16
  88              		@ sp needed
  89 001e 80BD     		pop	{r7, pc}
  90              		.cfi_endproc
  91              	.LFE1:
  92              		.size	CYCONFIGCPY, .-CYCONFIGCPY
  93              		.section	.text.CYCONFIGCPYCODE,"ax",%progbits
  94              		.align	2
  95              		.code	16
  96              		.thumb_func
  97              		.type	CYCONFIGCPYCODE, %function
  98              	CYCONFIGCPYCODE:
  99              	.LFB2:
  87:Generated_Source\PSoC4/cyfitter_cfg.c **** CY_CFG_UNUSED
  88:Generated_Source\PSoC4/cyfitter_cfg.c **** static void CYCONFIGCPYCODE(void *dest, const void *src, size_t n);
  89:Generated_Source\PSoC4/cyfitter_cfg.c **** CY_CFG_UNUSED
  90:Generated_Source\PSoC4/cyfitter_cfg.c **** static void CYCONFIGCPYCODE(void *dest, const void *src, size_t n)
  91:Generated_Source\PSoC4/cyfitter_cfg.c **** {
 100              		.loc 1 91 0
 101              		.cfi_startproc
 102              		@ args = 0, pretend = 0, frame = 16
 103              		@ frame_needed = 1, uses_anonymous_args = 0
 104 0000 80B5     		push	{r7, lr}
 105              		.cfi_def_cfa_offset 8
 106              		.cfi_offset 7, -8
 107              		.cfi_offset 14, -4
 108 0002 84B0     		sub	sp, sp, #16
 109              		.cfi_def_cfa_offset 24
 110 0004 00AF     		add	r7, sp, #0
 111              		.cfi_def_cfa_register 7
 112 0006 F860     		str	r0, [r7, #12]
 113 0008 B960     		str	r1, [r7, #8]
 114 000a 7A60     		str	r2, [r7, #4]
  92:Generated_Source\PSoC4/cyfitter_cfg.c **** 	(void)memcpy(dest, src, n);
 115              		.loc 1 92 0
 116 000c 7A68     		ldr	r2, [r7, #4]
 117 000e B968     		ldr	r1, [r7, #8]
 118 0010 FB68     		ldr	r3, [r7, #12]
 119 0012 1800     		movs	r0, r3
 120 0014 FFF7FEFF 		bl	memcpy
  93:Generated_Source\PSoC4/cyfitter_cfg.c **** }
 121              		.loc 1 93 0
 122 0018 C046     		nop
 123 001a BD46     		mov	sp, r7
 124 001c 04B0     		add	sp, sp, #16
 125              		@ sp needed
 126 001e 80BD     		pop	{r7, pc}
 127              		.cfi_endproc
 128              	.LFE2:
 129              		.size	CYCONFIGCPYCODE, .-CYCONFIGCPYCODE
 130              		.section	.text.cfg_write_bytes32,"ax",%progbits
 131              		.align	2
 132              		.code	16
 133              		.thumb_func
 134              		.type	cfg_write_bytes32, %function
 135              	cfg_write_bytes32:
ARM GAS  C:\Users\Larry\AppData\Local\Temp\cceDrtmg.s 			page 5


 136              	.LFB3:
  94:Generated_Source\PSoC4/cyfitter_cfg.c **** 
  95:Generated_Source\PSoC4/cyfitter_cfg.c **** 
  96:Generated_Source\PSoC4/cyfitter_cfg.c **** 
  97:Generated_Source\PSoC4/cyfitter_cfg.c **** 
  98:Generated_Source\PSoC4/cyfitter_cfg.c **** /* Clock startup error codes                                                   */
  99:Generated_Source\PSoC4/cyfitter_cfg.c **** #define CYCLOCKSTART_NO_ERROR    0u
 100:Generated_Source\PSoC4/cyfitter_cfg.c **** #define CYCLOCKSTART_XTAL_ERROR  1u
 101:Generated_Source\PSoC4/cyfitter_cfg.c **** #define CYCLOCKSTART_32KHZ_ERROR 2u
 102:Generated_Source\PSoC4/cyfitter_cfg.c **** #define CYCLOCKSTART_PLL_ERROR   3u
 103:Generated_Source\PSoC4/cyfitter_cfg.c **** #define CYCLOCKSTART_FLL_ERROR   4u
 104:Generated_Source\PSoC4/cyfitter_cfg.c **** #define CYCLOCKSTART_WCO_ERROR   5u
 105:Generated_Source\PSoC4/cyfitter_cfg.c **** 
 106:Generated_Source\PSoC4/cyfitter_cfg.c **** 
 107:Generated_Source\PSoC4/cyfitter_cfg.c **** #ifdef CY_NEED_CYCLOCKSTARTUPERROR
 108:Generated_Source\PSoC4/cyfitter_cfg.c **** /*******************************************************************************
 109:Generated_Source\PSoC4/cyfitter_cfg.c **** * Function Name: CyClockStartupError
 110:Generated_Source\PSoC4/cyfitter_cfg.c **** ********************************************************************************
 111:Generated_Source\PSoC4/cyfitter_cfg.c **** * Summary:
 112:Generated_Source\PSoC4/cyfitter_cfg.c **** *  If an error is encountered during clock configuration (crystal startup error,
 113:Generated_Source\PSoC4/cyfitter_cfg.c **** *  PLL lock error, etc.), the system will end up here.  Unless reimplemented by
 114:Generated_Source\PSoC4/cyfitter_cfg.c **** *  the customer, this function will stop in an infinite loop.
 115:Generated_Source\PSoC4/cyfitter_cfg.c **** *
 116:Generated_Source\PSoC4/cyfitter_cfg.c **** * Parameters:
 117:Generated_Source\PSoC4/cyfitter_cfg.c **** *   void
 118:Generated_Source\PSoC4/cyfitter_cfg.c **** *
 119:Generated_Source\PSoC4/cyfitter_cfg.c **** * Return:
 120:Generated_Source\PSoC4/cyfitter_cfg.c **** *   void
 121:Generated_Source\PSoC4/cyfitter_cfg.c **** *
 122:Generated_Source\PSoC4/cyfitter_cfg.c **** *******************************************************************************/
 123:Generated_Source\PSoC4/cyfitter_cfg.c **** CY_CFG_UNUSED
 124:Generated_Source\PSoC4/cyfitter_cfg.c **** static void CyClockStartupError(uint8 errorCode);
 125:Generated_Source\PSoC4/cyfitter_cfg.c **** CY_CFG_UNUSED
 126:Generated_Source\PSoC4/cyfitter_cfg.c **** static void CyClockStartupError(uint8 errorCode)
 127:Generated_Source\PSoC4/cyfitter_cfg.c **** {
 128:Generated_Source\PSoC4/cyfitter_cfg.c ****     /* To remove the compiler warning if errorCode not used.                */
 129:Generated_Source\PSoC4/cyfitter_cfg.c ****     errorCode = errorCode;
 130:Generated_Source\PSoC4/cyfitter_cfg.c **** 
 131:Generated_Source\PSoC4/cyfitter_cfg.c ****     /* If we have a clock startup error (bad MHz crystal, PLL lock, etc.),  */
 132:Generated_Source\PSoC4/cyfitter_cfg.c ****     /* we will end up here to allow the customer to implement something to  */
 133:Generated_Source\PSoC4/cyfitter_cfg.c ****     /* deal with the clock condition.                                       */
 134:Generated_Source\PSoC4/cyfitter_cfg.c **** 
 135:Generated_Source\PSoC4/cyfitter_cfg.c **** #ifdef CY_CFG_CLOCK_STARTUP_ERROR_CALLBACK
 136:Generated_Source\PSoC4/cyfitter_cfg.c ****     CY_CFG_Clock_Startup_ErrorCallback();
 137:Generated_Source\PSoC4/cyfitter_cfg.c **** #else
 138:Generated_Source\PSoC4/cyfitter_cfg.c ****     /*  If not using CY_CFG_CLOCK_STARTUP_ERROR_CALLBACK, place your clock startup code here. */
 139:Generated_Source\PSoC4/cyfitter_cfg.c ****     /* `#START CyClockStartupError` */
 140:Generated_Source\PSoC4/cyfitter_cfg.c **** 
 141:Generated_Source\PSoC4/cyfitter_cfg.c **** 
 142:Generated_Source\PSoC4/cyfitter_cfg.c **** 
 143:Generated_Source\PSoC4/cyfitter_cfg.c ****     /* `#END` */
 144:Generated_Source\PSoC4/cyfitter_cfg.c **** 
 145:Generated_Source\PSoC4/cyfitter_cfg.c ****     while(1) {}
 146:Generated_Source\PSoC4/cyfitter_cfg.c **** #endif /* CY_CFG_CLOCK_STARTUP_ERROR_CALLBACK */
 147:Generated_Source\PSoC4/cyfitter_cfg.c **** }
 148:Generated_Source\PSoC4/cyfitter_cfg.c **** #endif
 149:Generated_Source\PSoC4/cyfitter_cfg.c **** 
ARM GAS  C:\Users\Larry\AppData\Local\Temp\cceDrtmg.s 			page 6


 150:Generated_Source\PSoC4/cyfitter_cfg.c **** #define CY_CFG_BASE_ADDR_COUNT 8u
 151:Generated_Source\PSoC4/cyfitter_cfg.c **** CYPACKED typedef struct
 152:Generated_Source\PSoC4/cyfitter_cfg.c **** {
 153:Generated_Source\PSoC4/cyfitter_cfg.c **** 	uint8 offset;
 154:Generated_Source\PSoC4/cyfitter_cfg.c **** 	uint8 value;
 155:Generated_Source\PSoC4/cyfitter_cfg.c **** } CYPACKED_ATTR cy_cfg_addrvalue_t;
 156:Generated_Source\PSoC4/cyfitter_cfg.c **** 
 157:Generated_Source\PSoC4/cyfitter_cfg.c **** 
 158:Generated_Source\PSoC4/cyfitter_cfg.c **** 
 159:Generated_Source\PSoC4/cyfitter_cfg.c **** /*******************************************************************************
 160:Generated_Source\PSoC4/cyfitter_cfg.c **** * Function Name: cfg_write_bytes32
 161:Generated_Source\PSoC4/cyfitter_cfg.c **** ********************************************************************************
 162:Generated_Source\PSoC4/cyfitter_cfg.c **** * Summary:
 163:Generated_Source\PSoC4/cyfitter_cfg.c **** *  This function is used for setting up the chip configuration areas that
 164:Generated_Source\PSoC4/cyfitter_cfg.c **** *  contain relatively sparse data.
 165:Generated_Source\PSoC4/cyfitter_cfg.c **** *
 166:Generated_Source\PSoC4/cyfitter_cfg.c **** * Parameters:
 167:Generated_Source\PSoC4/cyfitter_cfg.c **** *   void
 168:Generated_Source\PSoC4/cyfitter_cfg.c **** *
 169:Generated_Source\PSoC4/cyfitter_cfg.c **** * Return:
 170:Generated_Source\PSoC4/cyfitter_cfg.c **** *   void
 171:Generated_Source\PSoC4/cyfitter_cfg.c **** *
 172:Generated_Source\PSoC4/cyfitter_cfg.c **** *******************************************************************************/
 173:Generated_Source\PSoC4/cyfitter_cfg.c **** static void cfg_write_bytes32(const uint32 addr_table[], const cy_cfg_addrvalue_t data_table[]);
 174:Generated_Source\PSoC4/cyfitter_cfg.c **** static void cfg_write_bytes32(const uint32 addr_table[], const cy_cfg_addrvalue_t data_table[])
 175:Generated_Source\PSoC4/cyfitter_cfg.c **** {
 137              		.loc 1 175 0
 138              		.cfi_startproc
 139              		@ args = 0, pretend = 0, frame = 24
 140              		@ frame_needed = 1, uses_anonymous_args = 0
 141 0000 80B5     		push	{r7, lr}
 142              		.cfi_def_cfa_offset 8
 143              		.cfi_offset 7, -8
 144              		.cfi_offset 14, -4
 145 0002 86B0     		sub	sp, sp, #24
 146              		.cfi_def_cfa_offset 32
 147 0004 00AF     		add	r7, sp, #0
 148              		.cfi_def_cfa_register 7
 149 0006 7860     		str	r0, [r7, #4]
 150 0008 3960     		str	r1, [r7]
 176:Generated_Source\PSoC4/cyfitter_cfg.c **** 	/* For 32-bit little-endian architectures */
 177:Generated_Source\PSoC4/cyfitter_cfg.c **** 	uint32 i, j = 0u;
 151              		.loc 1 177 0
 152 000a 0023     		movs	r3, #0
 153 000c 3B61     		str	r3, [r7, #16]
 178:Generated_Source\PSoC4/cyfitter_cfg.c **** 	for (i = 0u; i < CY_CFG_BASE_ADDR_COUNT; i++)
 154              		.loc 1 178 0
 155 000e 0023     		movs	r3, #0
 156 0010 7B61     		str	r3, [r7, #20]
 157 0012 2FE0     		b	.L5
 158              	.L8:
 159              	.LBB2:
 179:Generated_Source\PSoC4/cyfitter_cfg.c **** 	{
 180:Generated_Source\PSoC4/cyfitter_cfg.c **** 		uint32 baseAddr = addr_table[i];
 160              		.loc 1 180 0
 161 0014 7B69     		ldr	r3, [r7, #20]
 162 0016 9B00     		lsls	r3, r3, #2
ARM GAS  C:\Users\Larry\AppData\Local\Temp\cceDrtmg.s 			page 7


 163 0018 7A68     		ldr	r2, [r7, #4]
 164 001a D318     		adds	r3, r2, r3
 165 001c 1B68     		ldr	r3, [r3]
 166 001e BB60     		str	r3, [r7, #8]
 181:Generated_Source\PSoC4/cyfitter_cfg.c **** 		uint8 count = (uint8)baseAddr;
 167              		.loc 1 181 0
 168 0020 0F23     		movs	r3, #15
 169 0022 FB18     		adds	r3, r7, r3
 170 0024 BA68     		ldr	r2, [r7, #8]
 171 0026 1A70     		strb	r2, [r3]
 182:Generated_Source\PSoC4/cyfitter_cfg.c **** 		baseAddr &= 0xFFFFFF00u;
 172              		.loc 1 182 0
 173 0028 BB68     		ldr	r3, [r7, #8]
 174 002a FF22     		movs	r2, #255
 175 002c 9343     		bics	r3, r2
 176 002e BB60     		str	r3, [r7, #8]
 183:Generated_Source\PSoC4/cyfitter_cfg.c **** 		while (count != 0u)
 177              		.loc 1 183 0
 178 0030 18E0     		b	.L6
 179              	.L7:
 184:Generated_Source\PSoC4/cyfitter_cfg.c **** 		{
 185:Generated_Source\PSoC4/cyfitter_cfg.c **** 			CY_SET_REG8((void *)(baseAddr + data_table[j].offset), data_table[j].value);
 180              		.loc 1 185 0
 181 0032 3B69     		ldr	r3, [r7, #16]
 182 0034 5B00     		lsls	r3, r3, #1
 183 0036 3A68     		ldr	r2, [r7]
 184 0038 D318     		adds	r3, r2, r3
 185 003a 1B78     		ldrb	r3, [r3]
 186 003c 1A00     		movs	r2, r3
 187 003e BB68     		ldr	r3, [r7, #8]
 188 0040 D318     		adds	r3, r2, r3
 189 0042 1900     		movs	r1, r3
 190 0044 3B69     		ldr	r3, [r7, #16]
 191 0046 5B00     		lsls	r3, r3, #1
 192 0048 3A68     		ldr	r2, [r7]
 193 004a D318     		adds	r3, r2, r3
 194 004c 5B78     		ldrb	r3, [r3, #1]
 195 004e 0B70     		strb	r3, [r1]
 186:Generated_Source\PSoC4/cyfitter_cfg.c **** 			j++;
 196              		.loc 1 186 0
 197 0050 3B69     		ldr	r3, [r7, #16]
 198 0052 0133     		adds	r3, r3, #1
 199 0054 3B61     		str	r3, [r7, #16]
 187:Generated_Source\PSoC4/cyfitter_cfg.c **** 			count--;
 200              		.loc 1 187 0
 201 0056 0F23     		movs	r3, #15
 202 0058 FB18     		adds	r3, r7, r3
 203 005a 1A78     		ldrb	r2, [r3]
 204 005c 0F23     		movs	r3, #15
 205 005e FB18     		adds	r3, r7, r3
 206 0060 013A     		subs	r2, r2, #1
 207 0062 1A70     		strb	r2, [r3]
 208              	.L6:
 183:Generated_Source\PSoC4/cyfitter_cfg.c **** 		{
 209              		.loc 1 183 0
 210 0064 0F23     		movs	r3, #15
 211 0066 FB18     		adds	r3, r7, r3
ARM GAS  C:\Users\Larry\AppData\Local\Temp\cceDrtmg.s 			page 8


 212 0068 1B78     		ldrb	r3, [r3]
 213 006a 002B     		cmp	r3, #0
 214 006c E1D1     		bne	.L7
 215              	.LBE2:
 178:Generated_Source\PSoC4/cyfitter_cfg.c **** 	{
 216              		.loc 1 178 0 discriminator 2
 217 006e 7B69     		ldr	r3, [r7, #20]
 218 0070 0133     		adds	r3, r3, #1
 219 0072 7B61     		str	r3, [r7, #20]
 220              	.L5:
 178:Generated_Source\PSoC4/cyfitter_cfg.c **** 	{
 221              		.loc 1 178 0 is_stmt 0 discriminator 1
 222 0074 7B69     		ldr	r3, [r7, #20]
 223 0076 072B     		cmp	r3, #7
 224 0078 CCD9     		bls	.L8
 188:Generated_Source\PSoC4/cyfitter_cfg.c **** 		}
 189:Generated_Source\PSoC4/cyfitter_cfg.c **** 	}
 190:Generated_Source\PSoC4/cyfitter_cfg.c **** }
 225              		.loc 1 190 0 is_stmt 1
 226 007a C046     		nop
 227 007c BD46     		mov	sp, r7
 228 007e 06B0     		add	sp, sp, #24
 229              		@ sp needed
 230 0080 80BD     		pop	{r7, pc}
 231              		.cfi_endproc
 232              	.LFE3:
 233              		.size	cfg_write_bytes32, .-cfg_write_bytes32
 234 0082 C046     		.section	.psocinit,"ax",%progbits
 235              		.align	2
 236              		.code	16
 237              		.thumb_func
 238              		.type	ClockSetup, %function
 239              	ClockSetup:
 240              	.LFB4:
 191:Generated_Source\PSoC4/cyfitter_cfg.c **** 
 192:Generated_Source\PSoC4/cyfitter_cfg.c **** 
 193:Generated_Source\PSoC4/cyfitter_cfg.c **** /*******************************************************************************
 194:Generated_Source\PSoC4/cyfitter_cfg.c **** * Function Name: ClockSetup
 195:Generated_Source\PSoC4/cyfitter_cfg.c **** ********************************************************************************
 196:Generated_Source\PSoC4/cyfitter_cfg.c **** *
 197:Generated_Source\PSoC4/cyfitter_cfg.c **** * Summary:
 198:Generated_Source\PSoC4/cyfitter_cfg.c **** *   Performs the initialization of all of the clocks in the device based on the
 199:Generated_Source\PSoC4/cyfitter_cfg.c **** *   settings in the Clock tab of the DWR.  This includes enabling the requested
 200:Generated_Source\PSoC4/cyfitter_cfg.c **** *   clocks and setting the necessary dividers to produce the desired frequency. 
 201:Generated_Source\PSoC4/cyfitter_cfg.c **** *
 202:Generated_Source\PSoC4/cyfitter_cfg.c **** * Parameters:
 203:Generated_Source\PSoC4/cyfitter_cfg.c **** *   void
 204:Generated_Source\PSoC4/cyfitter_cfg.c **** *
 205:Generated_Source\PSoC4/cyfitter_cfg.c **** * Return:
 206:Generated_Source\PSoC4/cyfitter_cfg.c **** *   void
 207:Generated_Source\PSoC4/cyfitter_cfg.c **** *
 208:Generated_Source\PSoC4/cyfitter_cfg.c **** *******************************************************************************/
 209:Generated_Source\PSoC4/cyfitter_cfg.c **** static void ClockSetup(void);
 210:Generated_Source\PSoC4/cyfitter_cfg.c **** CY_CFG_SECTION
 211:Generated_Source\PSoC4/cyfitter_cfg.c **** static void ClockSetup(void)
 212:Generated_Source\PSoC4/cyfitter_cfg.c **** {
 241              		.loc 1 212 0
ARM GAS  C:\Users\Larry\AppData\Local\Temp\cceDrtmg.s 			page 9


 242              		.cfi_startproc
 243              		@ args = 0, pretend = 0, frame = 0
 244              		@ frame_needed = 1, uses_anonymous_args = 0
 245 0000 80B5     		push	{r7, lr}
 246              		.cfi_def_cfa_offset 8
 247              		.cfi_offset 7, -8
 248              		.cfi_offset 14, -4
 249 0002 00AF     		add	r7, sp, #0
 250              		.cfi_def_cfa_register 7
 213:Generated_Source\PSoC4/cyfitter_cfg.c **** 	/* Enable HALF_EN before trimming for the flash accelerator. */
 214:Generated_Source\PSoC4/cyfitter_cfg.c **** 	CY_SET_REG32((void CYXDATA *)(CYREG_CLK_SELECT), (CY_GET_REG32((void *)CYREG_CLK_SELECT) | 0x00040
 251              		.loc 1 214 0
 252 0004 164B     		ldr	r3, .L10
 253 0006 164A     		ldr	r2, .L10
 254 0008 1268     		ldr	r2, [r2]
 255 000a 8021     		movs	r1, #128
 256 000c C902     		lsls	r1, r1, #11
 257 000e 0A43     		orrs	r2, r1
 258 0010 1A60     		str	r2, [r3]
 215:Generated_Source\PSoC4/cyfitter_cfg.c **** 
 216:Generated_Source\PSoC4/cyfitter_cfg.c **** 	/* Setup and trim IMO based on desired frequency. */
 217:Generated_Source\PSoC4/cyfitter_cfg.c **** 	CySysClkWriteImoFreq(24u);
 259              		.loc 1 217 0
 260 0012 1820     		movs	r0, #24
 261 0014 FFF7FEFF 		bl	CySysClkWriteImoFreq
 218:Generated_Source\PSoC4/cyfitter_cfg.c **** 
 219:Generated_Source\PSoC4/cyfitter_cfg.c **** 	/* Disable HALF_EN since it is not required at this IMO frequency. */
 220:Generated_Source\PSoC4/cyfitter_cfg.c **** 	CY_SET_REG32((void CYXDATA *)(CYREG_CLK_SELECT), (CY_GET_REG32((void *)CYREG_CLK_SELECT) & 0xFFFBF
 262              		.loc 1 220 0
 263 0018 114B     		ldr	r3, .L10
 264 001a 114A     		ldr	r2, .L10
 265 001c 1268     		ldr	r2, [r2]
 266 001e 1149     		ldr	r1, .L10+4
 267 0020 0A40     		ands	r2, r1
 268 0022 1A60     		str	r2, [r3]
 221:Generated_Source\PSoC4/cyfitter_cfg.c **** 	/* CYDEV_CLK_ILO_CONFIG Starting address: CYDEV_CLK_ILO_CONFIG */
 222:Generated_Source\PSoC4/cyfitter_cfg.c **** 	CY_SET_REG32((void *)(CYREG_CLK_ILO_CONFIG), 0x80000006u);
 269              		.loc 1 222 0
 270 0024 104B     		ldr	r3, .L10+8
 271 0026 114A     		ldr	r2, .L10+12
 272 0028 1A60     		str	r2, [r3]
 223:Generated_Source\PSoC4/cyfitter_cfg.c **** 
 224:Generated_Source\PSoC4/cyfitter_cfg.c **** 
 225:Generated_Source\PSoC4/cyfitter_cfg.c **** 	/* CYDEV_CLK_SELECT00 Starting address: CYDEV_CLK_SELECT00 */
 226:Generated_Source\PSoC4/cyfitter_cfg.c **** 	CY_SET_REG32((void *)(CYREG_CLK_SELECT12), 0x00000010u);
 273              		.loc 1 226 0
 274 002a 114B     		ldr	r3, .L10+16
 275 002c 1022     		movs	r2, #16
 276 002e 1A60     		str	r2, [r3]
 227:Generated_Source\PSoC4/cyfitter_cfg.c **** 
 228:Generated_Source\PSoC4/cyfitter_cfg.c **** 	/* CYDEV_CLK_IMO_CONFIG Starting address: CYDEV_CLK_IMO_CONFIG */
 229:Generated_Source\PSoC4/cyfitter_cfg.c **** 	CY_SET_REG32((void *)(CYREG_CLK_IMO_CONFIG), 0x80000000u);
 277              		.loc 1 229 0
 278 0030 104B     		ldr	r3, .L10+20
 279 0032 8022     		movs	r2, #128
 280 0034 1206     		lsls	r2, r2, #24
 281 0036 1A60     		str	r2, [r3]
ARM GAS  C:\Users\Larry\AppData\Local\Temp\cceDrtmg.s 			page 10


 230:Generated_Source\PSoC4/cyfitter_cfg.c **** 
 231:Generated_Source\PSoC4/cyfitter_cfg.c **** 	/* CYDEV_CLK_SELECT Starting address: CYDEV_CLK_SELECT */
 232:Generated_Source\PSoC4/cyfitter_cfg.c **** 	CY_SET_REG32((void *)(CYREG_CLK_SELECT), 0x00000000u);
 282              		.loc 1 232 0
 283 0038 094B     		ldr	r3, .L10
 284 003a 0022     		movs	r2, #0
 285 003c 1A60     		str	r2, [r3]
 233:Generated_Source\PSoC4/cyfitter_cfg.c **** 
 234:Generated_Source\PSoC4/cyfitter_cfg.c **** 	/* CYDEV_CLK_DIVIDER_A00 Starting address: CYDEV_CLK_DIVIDER_A00 */
 235:Generated_Source\PSoC4/cyfitter_cfg.c **** 	CY_SET_REG32((void *)(CYREG_CLK_DIVIDER_A00), 0x80000019u);
 286              		.loc 1 235 0
 287 003e 0E4B     		ldr	r3, .L10+24
 288 0040 0E4A     		ldr	r2, .L10+28
 289 0042 1A60     		str	r2, [r3]
 236:Generated_Source\PSoC4/cyfitter_cfg.c **** 
 237:Generated_Source\PSoC4/cyfitter_cfg.c **** 	(void)CyIntSetVector(9u, &CySysWdtIsr);
 290              		.loc 1 237 0
 291 0044 0E4B     		ldr	r3, .L10+32
 292 0046 1900     		movs	r1, r3
 293 0048 0920     		movs	r0, #9
 294 004a FFF7FEFF 		bl	CyIntSetVector
 238:Generated_Source\PSoC4/cyfitter_cfg.c **** 	CyIntEnable(9u);
 295              		.loc 1 238 0
 296 004e 0920     		movs	r0, #9
 297 0050 FFF7FEFF 		bl	CyIntEnable
 239:Generated_Source\PSoC4/cyfitter_cfg.c **** 	CY_SET_REG32((void *)(CYREG_WDT_CONFIG), 0x00000000u);
 298              		.loc 1 239 0
 299 0054 0B4B     		ldr	r3, .L10+36
 300 0056 0022     		movs	r2, #0
 301 0058 1A60     		str	r2, [r3]
 240:Generated_Source\PSoC4/cyfitter_cfg.c **** }
 302              		.loc 1 240 0
 303 005a C046     		nop
 304 005c BD46     		mov	sp, r7
 305              		@ sp needed
 306 005e 80BD     		pop	{r7, pc}
 307              	.L11:
 308              		.align	2
 309              	.L10:
 310 0060 00010B40 		.word	1074462976
 311 0064 FFFFFBFF 		.word	-262145
 312 0068 04010B40 		.word	1074462980
 313 006c 06000080 		.word	-2147483642
 314 0070 30020240 		.word	1073873456
 315 0074 08010B40 		.word	1074462984
 316 0078 00000240 		.word	1073872896
 317 007c 19000080 		.word	-2147483623
 318 0080 00000000 		.word	CySysWdtIsr
 319 0084 0C020B40 		.word	1074463244
 320              		.cfi_endproc
 321              	.LFE4:
 322              		.size	ClockSetup, .-ClockSetup
 323              		.section	.text.AnalogSetDefault,"ax",%progbits
 324              		.align	2
 325              		.code	16
 326              		.thumb_func
 327              		.type	AnalogSetDefault, %function
ARM GAS  C:\Users\Larry\AppData\Local\Temp\cceDrtmg.s 			page 11


 328              	AnalogSetDefault:
 329              	.LFB5:
 241:Generated_Source\PSoC4/cyfitter_cfg.c **** 
 242:Generated_Source\PSoC4/cyfitter_cfg.c **** 
 243:Generated_Source\PSoC4/cyfitter_cfg.c **** /* Analog API Functions */
 244:Generated_Source\PSoC4/cyfitter_cfg.c **** 
 245:Generated_Source\PSoC4/cyfitter_cfg.c **** 
 246:Generated_Source\PSoC4/cyfitter_cfg.c **** /*******************************************************************************
 247:Generated_Source\PSoC4/cyfitter_cfg.c **** * Function Name: AnalogSetDefault
 248:Generated_Source\PSoC4/cyfitter_cfg.c **** ********************************************************************************
 249:Generated_Source\PSoC4/cyfitter_cfg.c **** *
 250:Generated_Source\PSoC4/cyfitter_cfg.c **** * Summary:
 251:Generated_Source\PSoC4/cyfitter_cfg.c **** *  Sets up the analog portions of the chip to default values based on chip
 252:Generated_Source\PSoC4/cyfitter_cfg.c **** *  configuration options from the project.
 253:Generated_Source\PSoC4/cyfitter_cfg.c **** *
 254:Generated_Source\PSoC4/cyfitter_cfg.c **** * Parameters:
 255:Generated_Source\PSoC4/cyfitter_cfg.c **** *  void
 256:Generated_Source\PSoC4/cyfitter_cfg.c **** *
 257:Generated_Source\PSoC4/cyfitter_cfg.c **** * Return:
 258:Generated_Source\PSoC4/cyfitter_cfg.c **** *  void
 259:Generated_Source\PSoC4/cyfitter_cfg.c **** *
 260:Generated_Source\PSoC4/cyfitter_cfg.c **** *******************************************************************************/
 261:Generated_Source\PSoC4/cyfitter_cfg.c **** static void AnalogSetDefault(void);
 262:Generated_Source\PSoC4/cyfitter_cfg.c **** static void AnalogSetDefault(void)
 263:Generated_Source\PSoC4/cyfitter_cfg.c **** {
 330              		.loc 1 263 0
 331              		.cfi_startproc
 332              		@ args = 0, pretend = 0, frame = 0
 333              		@ frame_needed = 1, uses_anonymous_args = 0
 334 0000 80B5     		push	{r7, lr}
 335              		.cfi_def_cfa_offset 8
 336              		.cfi_offset 7, -8
 337              		.cfi_offset 14, -4
 338 0002 00AF     		add	r7, sp, #0
 339              		.cfi_def_cfa_register 7
 264:Generated_Source\PSoC4/cyfitter_cfg.c **** }
 340              		.loc 1 264 0
 341 0004 C046     		nop
 342 0006 BD46     		mov	sp, r7
 343              		@ sp needed
 344 0008 80BD     		pop	{r7, pc}
 345              		.cfi_endproc
 346              	.LFE5:
 347              		.size	AnalogSetDefault, .-AnalogSetDefault
 348 000a C046     		.section	.psocinit
 349              		.align	2
 350              		.global	cyfitter_cfg
 351              		.code	16
 352              		.thumb_func
 353              		.type	cyfitter_cfg, %function
 354              	cyfitter_cfg:
 355              	.LFB6:
 265:Generated_Source\PSoC4/cyfitter_cfg.c **** 
 266:Generated_Source\PSoC4/cyfitter_cfg.c **** 
 267:Generated_Source\PSoC4/cyfitter_cfg.c **** 
 268:Generated_Source\PSoC4/cyfitter_cfg.c **** 
 269:Generated_Source\PSoC4/cyfitter_cfg.c **** /*******************************************************************************
ARM GAS  C:\Users\Larry\AppData\Local\Temp\cceDrtmg.s 			page 12


 270:Generated_Source\PSoC4/cyfitter_cfg.c **** * Function Name: cyfitter_cfg
 271:Generated_Source\PSoC4/cyfitter_cfg.c **** ********************************************************************************
 272:Generated_Source\PSoC4/cyfitter_cfg.c **** * Summary:
 273:Generated_Source\PSoC4/cyfitter_cfg.c **** *  This function is called by the start-up code for the selected device. It
 274:Generated_Source\PSoC4/cyfitter_cfg.c **** *  performs all of the necessary device configuration based on the design
 275:Generated_Source\PSoC4/cyfitter_cfg.c **** *  settings.  This includes settings from the Design Wide Resources (DWR) such
 276:Generated_Source\PSoC4/cyfitter_cfg.c **** *  as Clocks and Pins as well as any component configuration that is necessary.
 277:Generated_Source\PSoC4/cyfitter_cfg.c **** *
 278:Generated_Source\PSoC4/cyfitter_cfg.c **** * Parameters:
 279:Generated_Source\PSoC4/cyfitter_cfg.c **** *   void
 280:Generated_Source\PSoC4/cyfitter_cfg.c **** *
 281:Generated_Source\PSoC4/cyfitter_cfg.c **** * Return:
 282:Generated_Source\PSoC4/cyfitter_cfg.c **** *   void
 283:Generated_Source\PSoC4/cyfitter_cfg.c **** *
 284:Generated_Source\PSoC4/cyfitter_cfg.c **** *******************************************************************************/
 285:Generated_Source\PSoC4/cyfitter_cfg.c **** CY_CFG_SECTION
 286:Generated_Source\PSoC4/cyfitter_cfg.c **** void cyfitter_cfg(void)
 287:Generated_Source\PSoC4/cyfitter_cfg.c **** {
 356              		.loc 1 287 0
 357              		.cfi_startproc
 358              		@ args = 0, pretend = 0, frame = 24
 359              		@ frame_needed = 1, uses_anonymous_args = 0
 360 0088 80B5     		push	{r7, lr}
 361              		.cfi_def_cfa_offset 8
 362              		.cfi_offset 7, -8
 363              		.cfi_offset 14, -4
 364 008a 86B0     		sub	sp, sp, #24
 365              		.cfi_def_cfa_offset 32
 366 008c 00AF     		add	r7, sp, #0
 367              		.cfi_def_cfa_register 7
 288:Generated_Source\PSoC4/cyfitter_cfg.c **** 	/* Disable interrupts by default. Let user enable if/when they want. */
 289:Generated_Source\PSoC4/cyfitter_cfg.c **** 	CyGlobalIntDisable;
 368              		.loc 1 289 0
 369              		.syntax divided
 370              	@ 289 "Generated_Source\PSoC4\cyfitter_cfg.c" 1
 371 008e 72B6     		CPSID   i
 372              	@ 0 "" 2
 373              		.thumb
 374              		.syntax unified
 375              	.LBB3:
 290:Generated_Source\PSoC4/cyfitter_cfg.c **** 
 291:Generated_Source\PSoC4/cyfitter_cfg.c **** 	{
 292:Generated_Source\PSoC4/cyfitter_cfg.c **** 		static const uint32 CYCODE cy_cfg_addr_table[] = {
 293:Generated_Source\PSoC4/cyfitter_cfg.c **** 			0x400F0003u, /* Base address: 0x400F0000 Count: 3 */
 294:Generated_Source\PSoC4/cyfitter_cfg.c **** 			0x400F3012u, /* Base address: 0x400F3000 Count: 18 */
 295:Generated_Source\PSoC4/cyfitter_cfg.c **** 			0x400F3135u, /* Base address: 0x400F3100 Count: 53 */
 296:Generated_Source\PSoC4/cyfitter_cfg.c **** 			0x400F3269u, /* Base address: 0x400F3200 Count: 105 */
 297:Generated_Source\PSoC4/cyfitter_cfg.c **** 			0x400F334Au, /* Base address: 0x400F3300 Count: 74 */
 298:Generated_Source\PSoC4/cyfitter_cfg.c **** 			0x400F4001u, /* Base address: 0x400F4000 Count: 1 */
 299:Generated_Source\PSoC4/cyfitter_cfg.c **** 			0x400F4107u, /* Base address: 0x400F4100 Count: 7 */
 300:Generated_Source\PSoC4/cyfitter_cfg.c **** 			0x400F6002u, /* Base address: 0x400F6000 Count: 2 */
 301:Generated_Source\PSoC4/cyfitter_cfg.c **** 		};
 302:Generated_Source\PSoC4/cyfitter_cfg.c **** 
 303:Generated_Source\PSoC4/cyfitter_cfg.c **** 		static const cy_cfg_addrvalue_t CYCODE cy_cfg_data_table[] = {
 304:Generated_Source\PSoC4/cyfitter_cfg.c **** 			{0x80u, 0x38u},
 305:Generated_Source\PSoC4/cyfitter_cfg.c **** 			{0x81u, 0x72u},
 306:Generated_Source\PSoC4/cyfitter_cfg.c **** 			{0x82u, 0x0Fu},
ARM GAS  C:\Users\Larry\AppData\Local\Temp\cceDrtmg.s 			page 13


 307:Generated_Source\PSoC4/cyfitter_cfg.c **** 			{0x0Au, 0x01u},
 308:Generated_Source\PSoC4/cyfitter_cfg.c **** 			{0x0Eu, 0x02u},
 309:Generated_Source\PSoC4/cyfitter_cfg.c **** 			{0x14u, 0x04u},
 310:Generated_Source\PSoC4/cyfitter_cfg.c **** 			{0x15u, 0x01u},
 311:Generated_Source\PSoC4/cyfitter_cfg.c **** 			{0x26u, 0x02u},
 312:Generated_Source\PSoC4/cyfitter_cfg.c **** 			{0x2Eu, 0x01u},
 313:Generated_Source\PSoC4/cyfitter_cfg.c **** 			{0x30u, 0x02u},
 314:Generated_Source\PSoC4/cyfitter_cfg.c **** 			{0x31u, 0x01u},
 315:Generated_Source\PSoC4/cyfitter_cfg.c **** 			{0x32u, 0x04u},
 316:Generated_Source\PSoC4/cyfitter_cfg.c **** 			{0x34u, 0x01u},
 317:Generated_Source\PSoC4/cyfitter_cfg.c **** 			{0x3Au, 0x80u},
 318:Generated_Source\PSoC4/cyfitter_cfg.c **** 			{0x3Eu, 0x15u},
 319:Generated_Source\PSoC4/cyfitter_cfg.c **** 			{0x3Fu, 0x01u},
 320:Generated_Source\PSoC4/cyfitter_cfg.c **** 			{0x54u, 0x18u},
 321:Generated_Source\PSoC4/cyfitter_cfg.c **** 			{0x58u, 0x04u},
 322:Generated_Source\PSoC4/cyfitter_cfg.c **** 			{0x59u, 0x04u},
 323:Generated_Source\PSoC4/cyfitter_cfg.c **** 			{0x5Bu, 0x04u},
 324:Generated_Source\PSoC4/cyfitter_cfg.c **** 			{0x5Fu, 0x01u},
 325:Generated_Source\PSoC4/cyfitter_cfg.c **** 			{0x00u, 0x60u},
 326:Generated_Source\PSoC4/cyfitter_cfg.c **** 			{0x04u, 0x82u},
 327:Generated_Source\PSoC4/cyfitter_cfg.c **** 			{0x06u, 0x20u},
 328:Generated_Source\PSoC4/cyfitter_cfg.c **** 			{0x07u, 0x04u},
 329:Generated_Source\PSoC4/cyfitter_cfg.c **** 			{0x09u, 0x04u},
 330:Generated_Source\PSoC4/cyfitter_cfg.c **** 			{0x0Du, 0x20u},
 331:Generated_Source\PSoC4/cyfitter_cfg.c **** 			{0x0Eu, 0x22u},
 332:Generated_Source\PSoC4/cyfitter_cfg.c **** 			{0x10u, 0x20u},
 333:Generated_Source\PSoC4/cyfitter_cfg.c **** 			{0x11u, 0x80u},
 334:Generated_Source\PSoC4/cyfitter_cfg.c **** 			{0x16u, 0x02u},
 335:Generated_Source\PSoC4/cyfitter_cfg.c **** 			{0x17u, 0x1Au},
 336:Generated_Source\PSoC4/cyfitter_cfg.c **** 			{0x18u, 0x06u},
 337:Generated_Source\PSoC4/cyfitter_cfg.c **** 			{0x19u, 0x88u},
 338:Generated_Source\PSoC4/cyfitter_cfg.c **** 			{0x1Bu, 0x01u},
 339:Generated_Source\PSoC4/cyfitter_cfg.c **** 			{0x1Cu, 0x40u},
 340:Generated_Source\PSoC4/cyfitter_cfg.c **** 			{0x1Du, 0x22u},
 341:Generated_Source\PSoC4/cyfitter_cfg.c **** 			{0x1Eu, 0x21u},
 342:Generated_Source\PSoC4/cyfitter_cfg.c **** 			{0x1Fu, 0x28u},
 343:Generated_Source\PSoC4/cyfitter_cfg.c **** 			{0x21u, 0x01u},
 344:Generated_Source\PSoC4/cyfitter_cfg.c **** 			{0x25u, 0x41u},
 345:Generated_Source\PSoC4/cyfitter_cfg.c **** 			{0x26u, 0x24u},
 346:Generated_Source\PSoC4/cyfitter_cfg.c **** 			{0x2Du, 0x80u},
 347:Generated_Source\PSoC4/cyfitter_cfg.c **** 			{0x2Fu, 0x28u},
 348:Generated_Source\PSoC4/cyfitter_cfg.c **** 			{0x32u, 0x04u},
 349:Generated_Source\PSoC4/cyfitter_cfg.c **** 			{0x36u, 0x20u},
 350:Generated_Source\PSoC4/cyfitter_cfg.c **** 			{0x37u, 0x06u},
 351:Generated_Source\PSoC4/cyfitter_cfg.c **** 			{0x3Du, 0x02u},
 352:Generated_Source\PSoC4/cyfitter_cfg.c **** 			{0x3Eu, 0xA8u},
 353:Generated_Source\PSoC4/cyfitter_cfg.c **** 			{0x45u, 0x22u},
 354:Generated_Source\PSoC4/cyfitter_cfg.c **** 			{0x47u, 0x44u},
 355:Generated_Source\PSoC4/cyfitter_cfg.c **** 			{0x4Cu, 0x20u},
 356:Generated_Source\PSoC4/cyfitter_cfg.c **** 			{0x4Du, 0x80u},
 357:Generated_Source\PSoC4/cyfitter_cfg.c **** 			{0x54u, 0x10u},
 358:Generated_Source\PSoC4/cyfitter_cfg.c **** 			{0x5Au, 0x01u},
 359:Generated_Source\PSoC4/cyfitter_cfg.c **** 			{0x5Eu, 0x08u},
 360:Generated_Source\PSoC4/cyfitter_cfg.c **** 			{0x60u, 0x04u},
 361:Generated_Source\PSoC4/cyfitter_cfg.c **** 			{0x63u, 0x02u},
 362:Generated_Source\PSoC4/cyfitter_cfg.c **** 			{0x6Eu, 0x14u},
 363:Generated_Source\PSoC4/cyfitter_cfg.c **** 			{0x6Fu, 0x01u},
ARM GAS  C:\Users\Larry\AppData\Local\Temp\cceDrtmg.s 			page 14


 364:Generated_Source\PSoC4/cyfitter_cfg.c **** 			{0x76u, 0x28u},
 365:Generated_Source\PSoC4/cyfitter_cfg.c **** 			{0x77u, 0x0Au},
 366:Generated_Source\PSoC4/cyfitter_cfg.c **** 			{0x89u, 0x01u},
 367:Generated_Source\PSoC4/cyfitter_cfg.c **** 			{0xC0u, 0xF3u},
 368:Generated_Source\PSoC4/cyfitter_cfg.c **** 			{0xC2u, 0xE4u},
 369:Generated_Source\PSoC4/cyfitter_cfg.c **** 			{0xC4u, 0xF5u},
 370:Generated_Source\PSoC4/cyfitter_cfg.c **** 			{0xCAu, 0x70u},
 371:Generated_Source\PSoC4/cyfitter_cfg.c **** 			{0xCCu, 0xE2u},
 372:Generated_Source\PSoC4/cyfitter_cfg.c **** 			{0xCEu, 0xF0u},
 373:Generated_Source\PSoC4/cyfitter_cfg.c **** 			{0xD0u, 0xF0u},
 374:Generated_Source\PSoC4/cyfitter_cfg.c **** 			{0xD2u, 0x10u},
 375:Generated_Source\PSoC4/cyfitter_cfg.c **** 			{0xD6u, 0x41u},
 376:Generated_Source\PSoC4/cyfitter_cfg.c **** 			{0xD8u, 0x0Cu},
 377:Generated_Source\PSoC4/cyfitter_cfg.c **** 			{0xE2u, 0x20u},
 378:Generated_Source\PSoC4/cyfitter_cfg.c **** 			{0x00u, 0x13u},
 379:Generated_Source\PSoC4/cyfitter_cfg.c **** 			{0x01u, 0x01u},
 380:Generated_Source\PSoC4/cyfitter_cfg.c **** 			{0x02u, 0x04u},
 381:Generated_Source\PSoC4/cyfitter_cfg.c **** 			{0x03u, 0x0Au},
 382:Generated_Source\PSoC4/cyfitter_cfg.c **** 			{0x04u, 0x80u},
 383:Generated_Source\PSoC4/cyfitter_cfg.c **** 			{0x05u, 0x13u},
 384:Generated_Source\PSoC4/cyfitter_cfg.c **** 			{0x06u, 0x20u},
 385:Generated_Source\PSoC4/cyfitter_cfg.c **** 			{0x08u, 0x20u},
 386:Generated_Source\PSoC4/cyfitter_cfg.c **** 			{0x09u, 0x13u},
 387:Generated_Source\PSoC4/cyfitter_cfg.c **** 			{0x0Au, 0xC0u},
 388:Generated_Source\PSoC4/cyfitter_cfg.c **** 			{0x0Eu, 0x08u},
 389:Generated_Source\PSoC4/cyfitter_cfg.c **** 			{0x10u, 0x0Au},
 390:Generated_Source\PSoC4/cyfitter_cfg.c **** 			{0x11u, 0x10u},
 391:Generated_Source\PSoC4/cyfitter_cfg.c **** 			{0x12u, 0x14u},
 392:Generated_Source\PSoC4/cyfitter_cfg.c **** 			{0x18u, 0xE0u},
 393:Generated_Source\PSoC4/cyfitter_cfg.c **** 			{0x19u, 0x02u},
 394:Generated_Source\PSoC4/cyfitter_cfg.c **** 			{0x1Bu, 0x09u},
 395:Generated_Source\PSoC4/cyfitter_cfg.c **** 			{0x1Cu, 0xE0u},
 396:Generated_Source\PSoC4/cyfitter_cfg.c **** 			{0x20u, 0x40u},
 397:Generated_Source\PSoC4/cyfitter_cfg.c **** 			{0x22u, 0x20u},
 398:Generated_Source\PSoC4/cyfitter_cfg.c **** 			{0x24u, 0x13u},
 399:Generated_Source\PSoC4/cyfitter_cfg.c **** 			{0x26u, 0x0Cu},
 400:Generated_Source\PSoC4/cyfitter_cfg.c **** 			{0x2Au, 0x15u},
 401:Generated_Source\PSoC4/cyfitter_cfg.c **** 			{0x2Bu, 0x04u},
 402:Generated_Source\PSoC4/cyfitter_cfg.c **** 			{0x2Cu, 0x03u},
 403:Generated_Source\PSoC4/cyfitter_cfg.c **** 			{0x2Eu, 0x14u},
 404:Generated_Source\PSoC4/cyfitter_cfg.c **** 			{0x30u, 0x10u},
 405:Generated_Source\PSoC4/cyfitter_cfg.c **** 			{0x31u, 0x0Cu},
 406:Generated_Source\PSoC4/cyfitter_cfg.c **** 			{0x32u, 0xE0u},
 407:Generated_Source\PSoC4/cyfitter_cfg.c **** 			{0x33u, 0x03u},
 408:Generated_Source\PSoC4/cyfitter_cfg.c **** 			{0x34u, 0x0Fu},
 409:Generated_Source\PSoC4/cyfitter_cfg.c **** 			{0x35u, 0x10u},
 410:Generated_Source\PSoC4/cyfitter_cfg.c **** 			{0x3Au, 0x20u},
 411:Generated_Source\PSoC4/cyfitter_cfg.c **** 			{0x3Eu, 0x01u},
 412:Generated_Source\PSoC4/cyfitter_cfg.c **** 			{0x3Fu, 0x01u},
 413:Generated_Source\PSoC4/cyfitter_cfg.c **** 			{0x40u, 0x32u},
 414:Generated_Source\PSoC4/cyfitter_cfg.c **** 			{0x41u, 0x01u},
 415:Generated_Source\PSoC4/cyfitter_cfg.c **** 			{0x46u, 0xB0u},
 416:Generated_Source\PSoC4/cyfitter_cfg.c **** 			{0x47u, 0xCEu},
 417:Generated_Source\PSoC4/cyfitter_cfg.c **** 			{0x48u, 0x38u},
 418:Generated_Source\PSoC4/cyfitter_cfg.c **** 			{0x49u, 0xFFu},
 419:Generated_Source\PSoC4/cyfitter_cfg.c **** 			{0x4Au, 0xFFu},
 420:Generated_Source\PSoC4/cyfitter_cfg.c **** 			{0x4Bu, 0xFFu},
ARM GAS  C:\Users\Larry\AppData\Local\Temp\cceDrtmg.s 			page 15


 421:Generated_Source\PSoC4/cyfitter_cfg.c **** 			{0x4Eu, 0xF0u},
 422:Generated_Source\PSoC4/cyfitter_cfg.c **** 			{0x4Fu, 0x44u},
 423:Generated_Source\PSoC4/cyfitter_cfg.c **** 			{0x50u, 0x0Cu},
 424:Generated_Source\PSoC4/cyfitter_cfg.c **** 			{0x54u, 0x01u},
 425:Generated_Source\PSoC4/cyfitter_cfg.c **** 			{0x58u, 0x04u},
 426:Generated_Source\PSoC4/cyfitter_cfg.c **** 			{0x59u, 0x04u},
 427:Generated_Source\PSoC4/cyfitter_cfg.c **** 			{0x5Au, 0x04u},
 428:Generated_Source\PSoC4/cyfitter_cfg.c **** 			{0x5Bu, 0x04u},
 429:Generated_Source\PSoC4/cyfitter_cfg.c **** 			{0x5Fu, 0x01u},
 430:Generated_Source\PSoC4/cyfitter_cfg.c **** 			{0x66u, 0xC0u},
 431:Generated_Source\PSoC4/cyfitter_cfg.c **** 			{0x6Au, 0x40u},
 432:Generated_Source\PSoC4/cyfitter_cfg.c **** 			{0x6Bu, 0x02u},
 433:Generated_Source\PSoC4/cyfitter_cfg.c **** 			{0x84u, 0x14u},
 434:Generated_Source\PSoC4/cyfitter_cfg.c **** 			{0x85u, 0x80u},
 435:Generated_Source\PSoC4/cyfitter_cfg.c **** 			{0x87u, 0x13u},
 436:Generated_Source\PSoC4/cyfitter_cfg.c **** 			{0x8Cu, 0x0Cu},
 437:Generated_Source\PSoC4/cyfitter_cfg.c **** 			{0x8Eu, 0x71u},
 438:Generated_Source\PSoC4/cyfitter_cfg.c **** 			{0x8Fu, 0x0Cu},
 439:Generated_Source\PSoC4/cyfitter_cfg.c **** 			{0x94u, 0xDCu},
 440:Generated_Source\PSoC4/cyfitter_cfg.c **** 			{0x95u, 0x2Cu},
 441:Generated_Source\PSoC4/cyfitter_cfg.c **** 			{0x96u, 0x22u},
 442:Generated_Source\PSoC4/cyfitter_cfg.c **** 			{0x97u, 0x43u},
 443:Generated_Source\PSoC4/cyfitter_cfg.c **** 			{0x99u, 0x71u},
 444:Generated_Source\PSoC4/cyfitter_cfg.c **** 			{0x9Au, 0x03u},
 445:Generated_Source\PSoC4/cyfitter_cfg.c **** 			{0x9Bu, 0x06u},
 446:Generated_Source\PSoC4/cyfitter_cfg.c **** 			{0x9Cu, 0x09u},
 447:Generated_Source\PSoC4/cyfitter_cfg.c **** 			{0x9Eu, 0xD0u},
 448:Generated_Source\PSoC4/cyfitter_cfg.c **** 			{0x9Fu, 0x08u},
 449:Generated_Source\PSoC4/cyfitter_cfg.c **** 			{0xA0u, 0x10u},
 450:Generated_Source\PSoC4/cyfitter_cfg.c **** 			{0xA1u, 0x71u},
 451:Generated_Source\PSoC4/cyfitter_cfg.c **** 			{0xA2u, 0x40u},
 452:Generated_Source\PSoC4/cyfitter_cfg.c **** 			{0xA3u, 0x0Eu},
 453:Generated_Source\PSoC4/cyfitter_cfg.c **** 			{0xA4u, 0x10u},
 454:Generated_Source\PSoC4/cyfitter_cfg.c **** 			{0xA6u, 0xACu},
 455:Generated_Source\PSoC4/cyfitter_cfg.c **** 			{0xAAu, 0x20u},
 456:Generated_Source\PSoC4/cyfitter_cfg.c **** 			{0xB0u, 0xE0u},
 457:Generated_Source\PSoC4/cyfitter_cfg.c **** 			{0xB1u, 0xC0u},
 458:Generated_Source\PSoC4/cyfitter_cfg.c **** 			{0xB3u, 0x0Fu},
 459:Generated_Source\PSoC4/cyfitter_cfg.c **** 			{0xB4u, 0x1Fu},
 460:Generated_Source\PSoC4/cyfitter_cfg.c **** 			{0xB5u, 0x30u},
 461:Generated_Source\PSoC4/cyfitter_cfg.c **** 			{0xB9u, 0x22u},
 462:Generated_Source\PSoC4/cyfitter_cfg.c **** 			{0xBAu, 0x02u},
 463:Generated_Source\PSoC4/cyfitter_cfg.c **** 			{0xBBu, 0x08u},
 464:Generated_Source\PSoC4/cyfitter_cfg.c **** 			{0xBFu, 0x10u},
 465:Generated_Source\PSoC4/cyfitter_cfg.c **** 			{0xC0u, 0x02u},
 466:Generated_Source\PSoC4/cyfitter_cfg.c **** 			{0xC5u, 0x40u},
 467:Generated_Source\PSoC4/cyfitter_cfg.c **** 			{0xC9u, 0xFFu},
 468:Generated_Source\PSoC4/cyfitter_cfg.c **** 			{0xCAu, 0x07u},
 469:Generated_Source\PSoC4/cyfitter_cfg.c **** 			{0xCBu, 0xFFu},
 470:Generated_Source\PSoC4/cyfitter_cfg.c **** 			{0xCCu, 0x40u},
 471:Generated_Source\PSoC4/cyfitter_cfg.c **** 			{0xCDu, 0x20u},
 472:Generated_Source\PSoC4/cyfitter_cfg.c **** 			{0xCEu, 0xF0u},
 473:Generated_Source\PSoC4/cyfitter_cfg.c **** 			{0xCFu, 0x05u},
 474:Generated_Source\PSoC4/cyfitter_cfg.c **** 			{0xD0u, 0x08u},
 475:Generated_Source\PSoC4/cyfitter_cfg.c **** 			{0xD8u, 0x04u},
 476:Generated_Source\PSoC4/cyfitter_cfg.c **** 			{0xD9u, 0x04u},
 477:Generated_Source\PSoC4/cyfitter_cfg.c **** 			{0xDAu, 0x04u},
ARM GAS  C:\Users\Larry\AppData\Local\Temp\cceDrtmg.s 			page 16


 478:Generated_Source\PSoC4/cyfitter_cfg.c **** 			{0xDFu, 0x01u},
 479:Generated_Source\PSoC4/cyfitter_cfg.c **** 			{0xE0u, 0x40u},
 480:Generated_Source\PSoC4/cyfitter_cfg.c **** 			{0xE1u, 0xA8u},
 481:Generated_Source\PSoC4/cyfitter_cfg.c **** 			{0xE2u, 0x40u},
 482:Generated_Source\PSoC4/cyfitter_cfg.c **** 			{0xE3u, 0x20u},
 483:Generated_Source\PSoC4/cyfitter_cfg.c **** 			{0x02u, 0x11u},
 484:Generated_Source\PSoC4/cyfitter_cfg.c **** 			{0x04u, 0x40u},
 485:Generated_Source\PSoC4/cyfitter_cfg.c **** 			{0x05u, 0x21u},
 486:Generated_Source\PSoC4/cyfitter_cfg.c **** 			{0x07u, 0x10u},
 487:Generated_Source\PSoC4/cyfitter_cfg.c **** 			{0x09u, 0x08u},
 488:Generated_Source\PSoC4/cyfitter_cfg.c **** 			{0x0Au, 0x0Au},
 489:Generated_Source\PSoC4/cyfitter_cfg.c **** 			{0x0Cu, 0x01u},
 490:Generated_Source\PSoC4/cyfitter_cfg.c **** 			{0x0Du, 0x40u},
 491:Generated_Source\PSoC4/cyfitter_cfg.c **** 			{0x0Eu, 0x04u},
 492:Generated_Source\PSoC4/cyfitter_cfg.c **** 			{0x10u, 0x90u},
 493:Generated_Source\PSoC4/cyfitter_cfg.c **** 			{0x12u, 0x04u},
 494:Generated_Source\PSoC4/cyfitter_cfg.c **** 			{0x14u, 0x10u},
 495:Generated_Source\PSoC4/cyfitter_cfg.c **** 			{0x16u, 0x86u},
 496:Generated_Source\PSoC4/cyfitter_cfg.c **** 			{0x19u, 0x01u},
 497:Generated_Source\PSoC4/cyfitter_cfg.c **** 			{0x1Au, 0x08u},
 498:Generated_Source\PSoC4/cyfitter_cfg.c **** 			{0x1Du, 0x10u},
 499:Generated_Source\PSoC4/cyfitter_cfg.c **** 			{0x1Eu, 0x40u},
 500:Generated_Source\PSoC4/cyfitter_cfg.c **** 			{0x1Fu, 0x04u},
 501:Generated_Source\PSoC4/cyfitter_cfg.c **** 			{0x20u, 0x44u},
 502:Generated_Source\PSoC4/cyfitter_cfg.c **** 			{0x21u, 0x08u},
 503:Generated_Source\PSoC4/cyfitter_cfg.c **** 			{0x22u, 0x01u},
 504:Generated_Source\PSoC4/cyfitter_cfg.c **** 			{0x27u, 0x54u},
 505:Generated_Source\PSoC4/cyfitter_cfg.c **** 			{0x29u, 0x01u},
 506:Generated_Source\PSoC4/cyfitter_cfg.c **** 			{0x2Au, 0x01u},
 507:Generated_Source\PSoC4/cyfitter_cfg.c **** 			{0x2Du, 0x20u},
 508:Generated_Source\PSoC4/cyfitter_cfg.c **** 			{0x2Fu, 0x04u},
 509:Generated_Source\PSoC4/cyfitter_cfg.c **** 			{0x30u, 0x90u},
 510:Generated_Source\PSoC4/cyfitter_cfg.c **** 			{0x31u, 0x18u},
 511:Generated_Source\PSoC4/cyfitter_cfg.c **** 			{0x37u, 0x11u},
 512:Generated_Source\PSoC4/cyfitter_cfg.c **** 			{0x38u, 0x48u},
 513:Generated_Source\PSoC4/cyfitter_cfg.c **** 			{0x3Eu, 0x14u},
 514:Generated_Source\PSoC4/cyfitter_cfg.c **** 			{0x3Fu, 0x01u},
 515:Generated_Source\PSoC4/cyfitter_cfg.c **** 			{0x40u, 0x04u},
 516:Generated_Source\PSoC4/cyfitter_cfg.c **** 			{0x44u, 0x10u},
 517:Generated_Source\PSoC4/cyfitter_cfg.c **** 			{0x46u, 0x05u},
 518:Generated_Source\PSoC4/cyfitter_cfg.c **** 			{0x48u, 0x80u},
 519:Generated_Source\PSoC4/cyfitter_cfg.c **** 			{0x50u, 0x04u},
 520:Generated_Source\PSoC4/cyfitter_cfg.c **** 			{0x52u, 0x04u},
 521:Generated_Source\PSoC4/cyfitter_cfg.c **** 			{0x55u, 0x04u},
 522:Generated_Source\PSoC4/cyfitter_cfg.c **** 			{0x56u, 0x12u},
 523:Generated_Source\PSoC4/cyfitter_cfg.c **** 			{0x57u, 0x08u},
 524:Generated_Source\PSoC4/cyfitter_cfg.c **** 			{0x5Cu, 0x22u},
 525:Generated_Source\PSoC4/cyfitter_cfg.c **** 			{0x5Du, 0x08u},
 526:Generated_Source\PSoC4/cyfitter_cfg.c **** 			{0x5Eu, 0x40u},
 527:Generated_Source\PSoC4/cyfitter_cfg.c **** 			{0x80u, 0x40u},
 528:Generated_Source\PSoC4/cyfitter_cfg.c **** 			{0x82u, 0x80u},
 529:Generated_Source\PSoC4/cyfitter_cfg.c **** 			{0x83u, 0x01u},
 530:Generated_Source\PSoC4/cyfitter_cfg.c **** 			{0x84u, 0x20u},
 531:Generated_Source\PSoC4/cyfitter_cfg.c **** 			{0x86u, 0x02u},
 532:Generated_Source\PSoC4/cyfitter_cfg.c **** 			{0x88u, 0x03u},
 533:Generated_Source\PSoC4/cyfitter_cfg.c **** 			{0x89u, 0x08u},
 534:Generated_Source\PSoC4/cyfitter_cfg.c **** 			{0x8Bu, 0x08u},
ARM GAS  C:\Users\Larry\AppData\Local\Temp\cceDrtmg.s 			page 17


 535:Generated_Source\PSoC4/cyfitter_cfg.c **** 			{0x91u, 0x80u},
 536:Generated_Source\PSoC4/cyfitter_cfg.c **** 			{0x92u, 0x14u},
 537:Generated_Source\PSoC4/cyfitter_cfg.c **** 			{0x94u, 0x80u},
 538:Generated_Source\PSoC4/cyfitter_cfg.c **** 			{0x96u, 0x08u},
 539:Generated_Source\PSoC4/cyfitter_cfg.c **** 			{0x97u, 0x08u},
 540:Generated_Source\PSoC4/cyfitter_cfg.c **** 			{0x99u, 0x08u},
 541:Generated_Source\PSoC4/cyfitter_cfg.c **** 			{0x9Bu, 0x01u},
 542:Generated_Source\PSoC4/cyfitter_cfg.c **** 			{0x9Eu, 0x80u},
 543:Generated_Source\PSoC4/cyfitter_cfg.c **** 			{0x9Fu, 0x54u},
 544:Generated_Source\PSoC4/cyfitter_cfg.c **** 			{0xA5u, 0x04u},
 545:Generated_Source\PSoC4/cyfitter_cfg.c **** 			{0xAEu, 0x02u},
 546:Generated_Source\PSoC4/cyfitter_cfg.c **** 			{0xAFu, 0x04u},
 547:Generated_Source\PSoC4/cyfitter_cfg.c **** 			{0xB5u, 0x40u},
 548:Generated_Source\PSoC4/cyfitter_cfg.c **** 			{0xB6u, 0x31u},
 549:Generated_Source\PSoC4/cyfitter_cfg.c **** 			{0xC0u, 0xF5u},
 550:Generated_Source\PSoC4/cyfitter_cfg.c **** 			{0xC2u, 0xD7u},
 551:Generated_Source\PSoC4/cyfitter_cfg.c **** 			{0xC4u, 0xFEu},
 552:Generated_Source\PSoC4/cyfitter_cfg.c **** 			{0xCAu, 0x21u},
 553:Generated_Source\PSoC4/cyfitter_cfg.c **** 			{0xCCu, 0xAEu},
 554:Generated_Source\PSoC4/cyfitter_cfg.c **** 			{0xCEu, 0xEAu},
 555:Generated_Source\PSoC4/cyfitter_cfg.c **** 			{0xD0u, 0x74u},
 556:Generated_Source\PSoC4/cyfitter_cfg.c **** 			{0xD6u, 0xF0u},
 557:Generated_Source\PSoC4/cyfitter_cfg.c **** 			{0x88u, 0x02u},
 558:Generated_Source\PSoC4/cyfitter_cfg.c **** 			{0x0Au, 0x10u},
 559:Generated_Source\PSoC4/cyfitter_cfg.c **** 			{0x5Cu, 0x02u},
 560:Generated_Source\PSoC4/cyfitter_cfg.c **** 			{0x82u, 0x10u},
 561:Generated_Source\PSoC4/cyfitter_cfg.c **** 			{0x98u, 0x02u},
 562:Generated_Source\PSoC4/cyfitter_cfg.c **** 			{0xC2u, 0x10u},
 563:Generated_Source\PSoC4/cyfitter_cfg.c **** 			{0xD6u, 0x80u},
 564:Generated_Source\PSoC4/cyfitter_cfg.c **** 			{0xE0u, 0x80u},
 565:Generated_Source\PSoC4/cyfitter_cfg.c **** 			{0x10u, 0x01u},
 566:Generated_Source\PSoC4/cyfitter_cfg.c **** 			{0x11u, 0x01u},
 567:Generated_Source\PSoC4/cyfitter_cfg.c **** 		};
 568:Generated_Source\PSoC4/cyfitter_cfg.c **** 
 569:Generated_Source\PSoC4/cyfitter_cfg.c **** 
 570:Generated_Source\PSoC4/cyfitter_cfg.c **** 
 571:Generated_Source\PSoC4/cyfitter_cfg.c **** 		CYPACKED typedef struct {
 572:Generated_Source\PSoC4/cyfitter_cfg.c **** 			void CYFAR *address;
 573:Generated_Source\PSoC4/cyfitter_cfg.c **** 			uint16 size;
 574:Generated_Source\PSoC4/cyfitter_cfg.c **** 		} CYPACKED_ATTR cfg_memset_t;
 575:Generated_Source\PSoC4/cyfitter_cfg.c **** 
 576:Generated_Source\PSoC4/cyfitter_cfg.c **** 
 577:Generated_Source\PSoC4/cyfitter_cfg.c **** 		CYPACKED typedef struct {
 578:Generated_Source\PSoC4/cyfitter_cfg.c **** 			void CYFAR *dest;
 579:Generated_Source\PSoC4/cyfitter_cfg.c **** 			const void CYCODE *src;
 580:Generated_Source\PSoC4/cyfitter_cfg.c **** 			uint16 size;
 581:Generated_Source\PSoC4/cyfitter_cfg.c **** 		} CYPACKED_ATTR cfg_memcpy_t;
 582:Generated_Source\PSoC4/cyfitter_cfg.c **** 
 583:Generated_Source\PSoC4/cyfitter_cfg.c **** 		static const cfg_memset_t CYCODE cfg_memset_list[] = {
 584:Generated_Source\PSoC4/cyfitter_cfg.c **** 			/* address, size */
 585:Generated_Source\PSoC4/cyfitter_cfg.c **** 			{(void CYFAR *)(CYDEV_UDB_P0_U0_BASE), 128u},
 586:Generated_Source\PSoC4/cyfitter_cfg.c **** 			{(void CYFAR *)(CYDEV_UDB_P0_ROUTE_BASE), 768u},
 587:Generated_Source\PSoC4/cyfitter_cfg.c **** 			{(void CYFAR *)(CYDEV_UDB_DSI0_BASE), 1024u},
 588:Generated_Source\PSoC4/cyfitter_cfg.c **** 		};
 589:Generated_Source\PSoC4/cyfitter_cfg.c **** 
 590:Generated_Source\PSoC4/cyfitter_cfg.c **** 		/* UDB_0_1_1_CONFIG Address: CYDEV_UDB_P0_U1_BASE Size (bytes): 128 */
 591:Generated_Source\PSoC4/cyfitter_cfg.c **** 		static const uint8 CYCODE BS_UDB_0_1_1_CONFIG_VAL[] = {
ARM GAS  C:\Users\Larry\AppData\Local\Temp\cceDrtmg.s 			page 18


 592:Generated_Source\PSoC4/cyfitter_cfg.c **** 			0xFFu, 0x00u, 0x00u, 0x04u, 0x0Cu, 0x08u, 0x00u, 0x00u, 0x00u, 0x18u, 0xF3u, 0x00u, 0x41u, 0x04u
 593:Generated_Source\PSoC4/cyfitter_cfg.c **** 			0x00u, 0x10u, 0x00u, 0x00u, 0x0Fu, 0x00u, 0xF0u, 0x03u, 0xF3u, 0x3Cu, 0x0Cu, 0x42u, 0x1Cu, 0x00u
 594:Generated_Source\PSoC4/cyfitter_cfg.c **** 			0x08u, 0x00u, 0x00u, 0x00u, 0x04u, 0x67u, 0x00u, 0x18u, 0x82u, 0x3Cu, 0x00u, 0x41u, 0xC3u, 0x7Fu
 595:Generated_Source\PSoC4/cyfitter_cfg.c **** 			0x1Cu, 0x80u, 0x2Cu, 0x20u, 0x0Fu, 0x1Fu, 0xC0u, 0x40u, 0x00u, 0x80u, 0x28u, 0x20u, 0x00u, 0x00u
 596:Generated_Source\PSoC4/cyfitter_cfg.c **** 			0x23u, 0x05u, 0x04u, 0x00u, 0x01u, 0x0Cu, 0xE0u, 0x00u, 0x09u, 0xFFu, 0xFFu, 0xFFu, 0x62u, 0xA0u
 597:Generated_Source\PSoC4/cyfitter_cfg.c **** 			0x0Cu, 0x00u, 0x00u, 0x00u, 0x00u, 0x00u, 0x02u, 0x12u, 0x04u, 0x04u, 0x04u, 0x04u, 0x00u, 0x00u
 598:Generated_Source\PSoC4/cyfitter_cfg.c **** 			0x00u, 0x00u, 0x00u, 0x00u, 0x00u, 0x00u, 0x40u, 0x02u, 0x00u, 0x10u, 0x30u, 0x10u, 0x00u, 0x10u
 599:Generated_Source\PSoC4/cyfitter_cfg.c **** 			0x00u, 0x00u, 0x00u, 0x00u, 0x00u, 0x00u, 0x00u, 0x00u, 0x00u, 0x00u, 0x00u, 0x00u, 0x00u, 0x00u
 600:Generated_Source\PSoC4/cyfitter_cfg.c **** 
 601:Generated_Source\PSoC4/cyfitter_cfg.c **** 		static const cfg_memcpy_t CYCODE cfg_memcpy_list [] = {
 602:Generated_Source\PSoC4/cyfitter_cfg.c **** 			/* dest, src, size */
 603:Generated_Source\PSoC4/cyfitter_cfg.c **** 			{(void CYFAR *)(CYDEV_UDB_P0_U1_BASE), BS_UDB_0_1_1_CONFIG_VAL, 128u},
 604:Generated_Source\PSoC4/cyfitter_cfg.c **** 		};
 605:Generated_Source\PSoC4/cyfitter_cfg.c **** 
 606:Generated_Source\PSoC4/cyfitter_cfg.c **** 		uint8 CYDATA i;
 607:Generated_Source\PSoC4/cyfitter_cfg.c **** 
 608:Generated_Source\PSoC4/cyfitter_cfg.c **** 		/* Zero out critical memory blocks before beginning configuration */
 609:Generated_Source\PSoC4/cyfitter_cfg.c **** 		for (i = 0u; i < (sizeof(cfg_memset_list)/sizeof(cfg_memset_list[0])); i++)
 376              		.loc 1 609 0
 377 0090 1723     		movs	r3, #23
 378 0092 FB18     		adds	r3, r7, r3
 379 0094 0022     		movs	r2, #0
 380 0096 1A70     		strb	r2, [r3]
 381 0098 25E0     		b	.L14
 382              	.L15:
 383              	.LBB4:
 610:Generated_Source\PSoC4/cyfitter_cfg.c **** 		{
 611:Generated_Source\PSoC4/cyfitter_cfg.c **** 			const cfg_memset_t CYCODE * CYDATA ms = &cfg_memset_list[i];
 384              		.loc 1 611 0 discriminator 3
 385 009a 1723     		movs	r3, #23
 386 009c FB18     		adds	r3, r7, r3
 387 009e 1A78     		ldrb	r2, [r3]
 388 00a0 1300     		movs	r3, r2
 389 00a2 5B00     		lsls	r3, r3, #1
 390 00a4 9B18     		adds	r3, r3, r2
 391 00a6 5B00     		lsls	r3, r3, #1
 392 00a8 574A     		ldr	r2, .L18
 393 00aa 9B18     		adds	r3, r3, r2
 394 00ac 3B61     		str	r3, [r7, #16]
 612:Generated_Source\PSoC4/cyfitter_cfg.c **** 			CYMEMZERO(ms->address, (size_t)(uint32)(ms->size));
 395              		.loc 1 612 0 discriminator 3
 396 00ae 3B69     		ldr	r3, [r7, #16]
 397 00b0 1A78     		ldrb	r2, [r3]
 398 00b2 5978     		ldrb	r1, [r3, #1]
 399 00b4 0902     		lsls	r1, r1, #8
 400 00b6 0A43     		orrs	r2, r1
 401 00b8 9978     		ldrb	r1, [r3, #2]
 402 00ba 0904     		lsls	r1, r1, #16
 403 00bc 0A43     		orrs	r2, r1
 404 00be DB78     		ldrb	r3, [r3, #3]
 405 00c0 1B06     		lsls	r3, r3, #24
 406 00c2 1343     		orrs	r3, r2
 407 00c4 1800     		movs	r0, r3
 408 00c6 3B69     		ldr	r3, [r7, #16]
 409 00c8 1A79     		ldrb	r2, [r3, #4]
 410 00ca 5B79     		ldrb	r3, [r3, #5]
 411 00cc 1B02     		lsls	r3, r3, #8
ARM GAS  C:\Users\Larry\AppData\Local\Temp\cceDrtmg.s 			page 19


 412 00ce 1343     		orrs	r3, r2
 413 00d0 9BB2     		uxth	r3, r3
 414 00d2 1900     		movs	r1, r3
 415 00d4 FFF7FEFF 		bl	CYMEMZERO
 416              	.LBE4:
 609:Generated_Source\PSoC4/cyfitter_cfg.c **** 		{
 417              		.loc 1 609 0 discriminator 3
 418 00d8 1723     		movs	r3, #23
 419 00da FB18     		adds	r3, r7, r3
 420 00dc 1A78     		ldrb	r2, [r3]
 421 00de 1723     		movs	r3, #23
 422 00e0 FB18     		adds	r3, r7, r3
 423 00e2 0132     		adds	r2, r2, #1
 424 00e4 1A70     		strb	r2, [r3]
 425              	.L14:
 609:Generated_Source\PSoC4/cyfitter_cfg.c **** 		{
 426              		.loc 1 609 0 is_stmt 0 discriminator 1
 427 00e6 1723     		movs	r3, #23
 428 00e8 FB18     		adds	r3, r7, r3
 429 00ea 1B78     		ldrb	r3, [r3]
 430 00ec 022B     		cmp	r3, #2
 431 00ee D4D9     		bls	.L15
 613:Generated_Source\PSoC4/cyfitter_cfg.c **** 		}
 614:Generated_Source\PSoC4/cyfitter_cfg.c **** 
 615:Generated_Source\PSoC4/cyfitter_cfg.c **** 		/* Copy device configuration data into registers */
 616:Generated_Source\PSoC4/cyfitter_cfg.c **** 		for (i = 0u; i < (sizeof(cfg_memcpy_list)/sizeof(cfg_memcpy_list[0])); i++)
 432              		.loc 1 616 0 is_stmt 1
 433 00f0 1723     		movs	r3, #23
 434 00f2 FB18     		adds	r3, r7, r3
 435 00f4 0022     		movs	r2, #0
 436 00f6 1A70     		strb	r2, [r3]
 437 00f8 36E0     		b	.L16
 438              	.L17:
 439              	.LBB5:
 617:Generated_Source\PSoC4/cyfitter_cfg.c **** 		{
 618:Generated_Source\PSoC4/cyfitter_cfg.c **** 			const cfg_memcpy_t CYCODE * CYDATA mc = &cfg_memcpy_list[i];
 440              		.loc 1 618 0 discriminator 3
 441 00fa 1723     		movs	r3, #23
 442 00fc FB18     		adds	r3, r7, r3
 443 00fe 1A78     		ldrb	r2, [r3]
 444 0100 1300     		movs	r3, r2
 445 0102 9B00     		lsls	r3, r3, #2
 446 0104 9B18     		adds	r3, r3, r2
 447 0106 5B00     		lsls	r3, r3, #1
 448 0108 404A     		ldr	r2, .L18+4
 449 010a 9B18     		adds	r3, r3, r2
 450 010c FB60     		str	r3, [r7, #12]
 619:Generated_Source\PSoC4/cyfitter_cfg.c **** 			void * CYDATA destPtr = mc->dest;
 451              		.loc 1 619 0 discriminator 3
 452 010e FB68     		ldr	r3, [r7, #12]
 453 0110 1A78     		ldrb	r2, [r3]
 454 0112 5978     		ldrb	r1, [r3, #1]
 455 0114 0902     		lsls	r1, r1, #8
 456 0116 0A43     		orrs	r2, r1
 457 0118 9978     		ldrb	r1, [r3, #2]
 458 011a 0904     		lsls	r1, r1, #16
 459 011c 0A43     		orrs	r2, r1
ARM GAS  C:\Users\Larry\AppData\Local\Temp\cceDrtmg.s 			page 20


 460 011e DB78     		ldrb	r3, [r3, #3]
 461 0120 1B06     		lsls	r3, r3, #24
 462 0122 1343     		orrs	r3, r2
 463 0124 BB60     		str	r3, [r7, #8]
 620:Generated_Source\PSoC4/cyfitter_cfg.c **** 			const void CYCODE * CYDATA srcPtr = mc->src;
 464              		.loc 1 620 0 discriminator 3
 465 0126 FB68     		ldr	r3, [r7, #12]
 466 0128 1A79     		ldrb	r2, [r3, #4]
 467 012a 5979     		ldrb	r1, [r3, #5]
 468 012c 0902     		lsls	r1, r1, #8
 469 012e 0A43     		orrs	r2, r1
 470 0130 9979     		ldrb	r1, [r3, #6]
 471 0132 0904     		lsls	r1, r1, #16
 472 0134 0A43     		orrs	r2, r1
 473 0136 DB79     		ldrb	r3, [r3, #7]
 474 0138 1B06     		lsls	r3, r3, #24
 475 013a 1343     		orrs	r3, r2
 476 013c 7B60     		str	r3, [r7, #4]
 621:Generated_Source\PSoC4/cyfitter_cfg.c **** 			uint16 CYDATA numBytes = mc->size;
 477              		.loc 1 621 0 discriminator 3
 478 013e BA1C     		adds	r2, r7, #2
 479 0140 FB68     		ldr	r3, [r7, #12]
 480 0142 197A     		ldrb	r1, [r3, #8]
 481 0144 5B7A     		ldrb	r3, [r3, #9]
 482 0146 1B02     		lsls	r3, r3, #8
 483 0148 0B43     		orrs	r3, r1
 484 014a 1380     		strh	r3, [r2]
 622:Generated_Source\PSoC4/cyfitter_cfg.c **** 			CYCONFIGCPYCODE(destPtr, srcPtr, numBytes);
 485              		.loc 1 622 0 discriminator 3
 486 014c BB1C     		adds	r3, r7, #2
 487 014e 1A88     		ldrh	r2, [r3]
 488 0150 7968     		ldr	r1, [r7, #4]
 489 0152 BB68     		ldr	r3, [r7, #8]
 490 0154 1800     		movs	r0, r3
 491 0156 FFF7FEFF 		bl	CYCONFIGCPYCODE
 492              	.LBE5:
 616:Generated_Source\PSoC4/cyfitter_cfg.c **** 		{
 493              		.loc 1 616 0 discriminator 3
 494 015a 1723     		movs	r3, #23
 495 015c FB18     		adds	r3, r7, r3
 496 015e 1A78     		ldrb	r2, [r3]
 497 0160 1723     		movs	r3, #23
 498 0162 FB18     		adds	r3, r7, r3
 499 0164 0132     		adds	r2, r2, #1
 500 0166 1A70     		strb	r2, [r3]
 501              	.L16:
 616:Generated_Source\PSoC4/cyfitter_cfg.c **** 		{
 502              		.loc 1 616 0 is_stmt 0 discriminator 1
 503 0168 1723     		movs	r3, #23
 504 016a FB18     		adds	r3, r7, r3
 505 016c 1B78     		ldrb	r3, [r3]
 506 016e 002B     		cmp	r3, #0
 507 0170 C3D0     		beq	.L17
 623:Generated_Source\PSoC4/cyfitter_cfg.c **** 		}
 624:Generated_Source\PSoC4/cyfitter_cfg.c **** 
 625:Generated_Source\PSoC4/cyfitter_cfg.c **** 		cfg_write_bytes32(cy_cfg_addr_table, cy_cfg_data_table);
 508              		.loc 1 625 0 is_stmt 1
ARM GAS  C:\Users\Larry\AppData\Local\Temp\cceDrtmg.s 			page 21


 509 0172 274A     		ldr	r2, .L18+8
 510 0174 274B     		ldr	r3, .L18+12
 511 0176 1100     		movs	r1, r2
 512 0178 1800     		movs	r0, r3
 513 017a FFF7FEFF 		bl	cfg_write_bytes32
 626:Generated_Source\PSoC4/cyfitter_cfg.c **** 
 627:Generated_Source\PSoC4/cyfitter_cfg.c **** 		/* Perform normal device configuration. Order is not critical for these items. */
 628:Generated_Source\PSoC4/cyfitter_cfg.c **** 		CY_SET_REG16((void *)(CYREG_UDB_BCTL0_DRV), 0x0100u);
 514              		.loc 1 628 0
 515 017e 264B     		ldr	r3, .L18+16
 516 0180 8022     		movs	r2, #128
 517 0182 5200     		lsls	r2, r2, #1
 518 0184 1A80     		strh	r2, [r3]
 629:Generated_Source\PSoC4/cyfitter_cfg.c **** 		CY_SET_REG8((void *)(CYREG_UDB_BCTL0_DRV + 0x2u), 0x01u);
 519              		.loc 1 629 0
 520 0186 254B     		ldr	r3, .L18+20
 521 0188 0122     		movs	r2, #1
 522 018a 1A70     		strb	r2, [r3]
 630:Generated_Source\PSoC4/cyfitter_cfg.c **** 
 631:Generated_Source\PSoC4/cyfitter_cfg.c **** 		/* HSIOM Starting address: CYDEV_HSIOM_BASE */
 632:Generated_Source\PSoC4/cyfitter_cfg.c **** 		CY_SET_REG32((void *)(CYREG_HSIOM_PORT_SEL1), 0x00300000u);
 523              		.loc 1 632 0
 524 018c 244B     		ldr	r3, .L18+24
 525 018e C022     		movs	r2, #192
 526 0190 9203     		lsls	r2, r2, #14
 527 0192 1A60     		str	r2, [r3]
 633:Generated_Source\PSoC4/cyfitter_cfg.c **** 		CY_SET_REG32((void *)(CYREG_HSIOM_PORT_SEL3), 0x0000EE00u);
 528              		.loc 1 633 0
 529 0194 234B     		ldr	r3, .L18+28
 530 0196 EE22     		movs	r2, #238
 531 0198 1202     		lsls	r2, r2, #8
 532 019a 1A60     		str	r2, [r3]
 634:Generated_Source\PSoC4/cyfitter_cfg.c **** 
 635:Generated_Source\PSoC4/cyfitter_cfg.c **** 		/* UDB_PA_1 Starting address: CYDEV_UDB_PA1_BASE */
 636:Generated_Source\PSoC4/cyfitter_cfg.c **** 		CY_SET_REG32((void *)(CYDEV_UDB_PA1_BASE), 0x00990004u);
 533              		.loc 1 636 0
 534 019c 224B     		ldr	r3, .L18+32
 535 019e 234A     		ldr	r2, .L18+36
 536 01a0 1A60     		str	r2, [r3]
 637:Generated_Source\PSoC4/cyfitter_cfg.c **** 		CY_SET_REG32((void *)(CYREG_UDB_PA1_CFG4), 0x02000000u);
 537              		.loc 1 637 0
 538 01a2 234B     		ldr	r3, .L18+40
 539 01a4 8022     		movs	r2, #128
 540 01a6 9204     		lsls	r2, r2, #18
 541 01a8 1A60     		str	r2, [r3]
 638:Generated_Source\PSoC4/cyfitter_cfg.c **** 		CY_SET_REG32((void *)(CYREG_UDB_PA1_CFG8), 0x04000000u);
 542              		.loc 1 638 0
 543 01aa 224B     		ldr	r3, .L18+44
 544 01ac 8022     		movs	r2, #128
 545 01ae D204     		lsls	r2, r2, #19
 546 01b0 1A60     		str	r2, [r3]
 639:Generated_Source\PSoC4/cyfitter_cfg.c **** 
 640:Generated_Source\PSoC4/cyfitter_cfg.c **** 		/* UDB_PA_3 Starting address: CYDEV_UDB_PA3_BASE */
 641:Generated_Source\PSoC4/cyfitter_cfg.c **** 		CY_SET_REG32((void *)(CYDEV_UDB_PA3_BASE), 0x00990000u);
 547              		.loc 1 641 0
 548 01b2 214B     		ldr	r3, .L18+48
 549 01b4 9922     		movs	r2, #153
ARM GAS  C:\Users\Larry\AppData\Local\Temp\cceDrtmg.s 			page 22


 550 01b6 1204     		lsls	r2, r2, #16
 551 01b8 1A60     		str	r2, [r3]
 642:Generated_Source\PSoC4/cyfitter_cfg.c **** 
 643:Generated_Source\PSoC4/cyfitter_cfg.c **** 		/* Enable UDB array and digital routing */
 644:Generated_Source\PSoC4/cyfitter_cfg.c **** 		CY_SET_XTND_REG8((void *)CYREG_UDB_UDBIF_WAIT_CFG, (uint8)((CY_GET_XTND_REG8((void *)CYREG_UDB_UD
 552              		.loc 1 644 0
 553 01ba 204A     		ldr	r2, .L18+52
 554 01bc 1F4B     		ldr	r3, .L18+52
 555 01be 1B78     		ldrb	r3, [r3]
 556 01c0 DBB2     		uxtb	r3, r3
 557 01c2 3C21     		movs	r1, #60
 558 01c4 8B43     		bics	r3, r1
 559 01c6 DBB2     		uxtb	r3, r3
 560 01c8 1421     		movs	r1, #20
 561 01ca 0B43     		orrs	r3, r1
 562 01cc DBB2     		uxtb	r3, r3
 563 01ce 1370     		strb	r3, [r2]
 645:Generated_Source\PSoC4/cyfitter_cfg.c **** 		CY_SET_XTND_REG8((void *)CYREG_UDB_UDBIF_BANK_CTL, (uint8)(CY_GET_XTND_REG8((void *)CYREG_UDB_UDB
 564              		.loc 1 645 0
 565 01d0 1B4A     		ldr	r2, .L18+56
 566 01d2 1B4B     		ldr	r3, .L18+56
 567 01d4 1B78     		ldrb	r3, [r3]
 568 01d6 DBB2     		uxtb	r3, r3
 569 01d8 1621     		movs	r1, #22
 570 01da 0B43     		orrs	r3, r1
 571 01dc DBB2     		uxtb	r3, r3
 572 01de 1370     		strb	r3, [r2]
 573              	.LBE3:
 646:Generated_Source\PSoC4/cyfitter_cfg.c **** 	}
 647:Generated_Source\PSoC4/cyfitter_cfg.c **** 
 648:Generated_Source\PSoC4/cyfitter_cfg.c **** 	/* Perform second pass device configuration. These items must be configured in specific order afte
 649:Generated_Source\PSoC4/cyfitter_cfg.c **** 	/* IOPINS0_1 Starting address: CYDEV_PRT1_BASE */
 650:Generated_Source\PSoC4/cyfitter_cfg.c **** 	CY_SET_REG32((void *)(CYDEV_PRT1_BASE), 0x00000020u);
 574              		.loc 1 650 0
 575 01e0 184B     		ldr	r3, .L18+60
 576 01e2 2022     		movs	r2, #32
 577 01e4 1A60     		str	r2, [r3]
 651:Generated_Source\PSoC4/cyfitter_cfg.c **** 	CY_SET_REG32((void *)(CYREG_PRT1_PC), 0x00031000u);
 578              		.loc 1 651 0
 579 01e6 184B     		ldr	r3, .L18+64
 580 01e8 C422     		movs	r2, #196
 581 01ea 9202     		lsls	r2, r2, #10
 582 01ec 1A60     		str	r2, [r3]
 652:Generated_Source\PSoC4/cyfitter_cfg.c **** 
 653:Generated_Source\PSoC4/cyfitter_cfg.c **** 	/* IOPINS0_3 Starting address: CYDEV_PRT3_BASE */
 654:Generated_Source\PSoC4/cyfitter_cfg.c **** 	CY_SET_REG32((void *)(CYREG_PRT3_PC), 0x00000D80u);
 583              		.loc 1 654 0
 584 01ee 174B     		ldr	r3, .L18+68
 585 01f0 D822     		movs	r2, #216
 586 01f2 1201     		lsls	r2, r2, #4
 587 01f4 1A60     		str	r2, [r3]
 655:Generated_Source\PSoC4/cyfitter_cfg.c **** 
 656:Generated_Source\PSoC4/cyfitter_cfg.c **** 
 657:Generated_Source\PSoC4/cyfitter_cfg.c **** 	/* Setup clocks based on selections from Clock DWR */
 658:Generated_Source\PSoC4/cyfitter_cfg.c **** 	ClockSetup();
 588              		.loc 1 658 0
 589 01f6 FFF703FF 		bl	ClockSetup
ARM GAS  C:\Users\Larry\AppData\Local\Temp\cceDrtmg.s 			page 23


 659:Generated_Source\PSoC4/cyfitter_cfg.c **** 
 660:Generated_Source\PSoC4/cyfitter_cfg.c **** 	/* Perform basic analog initialization to defaults */
 661:Generated_Source\PSoC4/cyfitter_cfg.c **** 	AnalogSetDefault();
 590              		.loc 1 661 0
 591 01fa FFF7FEFF 		bl	AnalogSetDefault
 662:Generated_Source\PSoC4/cyfitter_cfg.c **** 
 663:Generated_Source\PSoC4/cyfitter_cfg.c **** }
 592              		.loc 1 663 0
 593 01fe C046     		nop
 594 0200 BD46     		mov	sp, r7
 595 0202 06B0     		add	sp, sp, #24
 596              		@ sp needed
 597 0204 80BD     		pop	{r7, pc}
 598              	.L19:
 599 0206 C046     		.align	2
 600              	.L18:
 601 0208 00000000 		.word	cfg_memset_list.4875
 602 020c 14000000 		.word	cfg_memcpy_list.4877
 603 0210 40000000 		.word	cy_cfg_data_table.4865
 604 0214 20000000 		.word	cy_cfg_addr_table.4864
 605 0218 00600F40 		.word	1074749440
 606 021c 02600F40 		.word	1074749442
 607 0220 04000140 		.word	1073807364
 608 0224 0C000140 		.word	1073807372
 609 0228 10500F40 		.word	1074745360
 610 022c 04009900 		.word	10027012
 611 0230 14500F40 		.word	1074745364
 612 0234 18500F40 		.word	1074745368
 613 0238 30500F40 		.word	1074745392
 614 023c 01700F40 		.word	1074753537
 615 0240 00700F40 		.word	1074753536
 616 0244 00010440 		.word	1074004224
 617 0248 08010440 		.word	1074004232
 618 024c 08030440 		.word	1074004744
 619              		.cfi_endproc
 620              	.LFE6:
 621              		.size	cyfitter_cfg, .-cyfitter_cfg
 622              		.section	.rodata
 623              		.align	2
 624              		.type	cfg_memset_list.4875, %object
 625              		.size	cfg_memset_list.4875, 18
 626              	cfg_memset_list.4875:
 627 0000 00300F40 		.word	1074737152
 628 0004 8000     		.short	128
 629 0006 00310F40 		.4byte	1074737408
 630 000a 0003     		.short	768
 631 000c 00400F40 		.word	1074741248
 632 0010 0004     		.short	1024
 633 0012 0000     		.align	2
 634              		.type	cfg_memcpy_list.4877, %object
 635              		.size	cfg_memcpy_list.4877, 10
 636              	cfg_memcpy_list.4877:
 637 0014 80300F40 		.word	1074737280
 638 0018 50020000 		.word	BS_UDB_0_1_1_CONFIG_VAL.4876
 639 001c 8000     		.short	128
 640 001e 0000     		.align	2
 641              		.type	cy_cfg_addr_table.4864, %object
ARM GAS  C:\Users\Larry\AppData\Local\Temp\cceDrtmg.s 			page 24


 642              		.size	cy_cfg_addr_table.4864, 32
 643              	cy_cfg_addr_table.4864:
 644 0020 03000F40 		.word	1074724867
 645 0024 12300F40 		.word	1074737170
 646 0028 35310F40 		.word	1074737461
 647 002c 69320F40 		.word	1074737769
 648 0030 4A330F40 		.word	1074737994
 649 0034 01400F40 		.word	1074741249
 650 0038 07410F40 		.word	1074741511
 651 003c 02600F40 		.word	1074749442
 652              		.align	2
 653              		.type	cy_cfg_data_table.4865, %object
 654              		.size	cy_cfg_data_table.4865, 526
 655              	cy_cfg_data_table.4865:
 656 0040 80       		.byte	-128
 657 0041 38       		.byte	56
 658 0042 81       		.byte	-127
 659 0043 72       		.byte	114
 660 0044 82       		.byte	-126
 661 0045 0F       		.byte	15
 662 0046 0A       		.byte	10
 663 0047 01       		.byte	1
 664 0048 0E       		.byte	14
 665 0049 02       		.byte	2
 666 004a 14       		.byte	20
 667 004b 04       		.byte	4
 668 004c 15       		.byte	21
 669 004d 01       		.byte	1
 670 004e 26       		.byte	38
 671 004f 02       		.byte	2
 672 0050 2E       		.byte	46
 673 0051 01       		.byte	1
 674 0052 30       		.byte	48
 675 0053 02       		.byte	2
 676 0054 31       		.byte	49
 677 0055 01       		.byte	1
 678 0056 32       		.byte	50
 679 0057 04       		.byte	4
 680 0058 34       		.byte	52
 681 0059 01       		.byte	1
 682 005a 3A       		.byte	58
 683 005b 80       		.byte	-128
 684 005c 3E       		.byte	62
 685 005d 15       		.byte	21
 686 005e 3F       		.byte	63
 687 005f 01       		.byte	1
 688 0060 54       		.byte	84
 689 0061 18       		.byte	24
 690 0062 58       		.byte	88
 691 0063 04       		.byte	4
 692 0064 59       		.byte	89
 693 0065 04       		.byte	4
 694 0066 5B       		.byte	91
 695 0067 04       		.byte	4
 696 0068 5F       		.byte	95
 697 0069 01       		.byte	1
 698 006a 00       		.byte	0
ARM GAS  C:\Users\Larry\AppData\Local\Temp\cceDrtmg.s 			page 25


 699 006b 60       		.byte	96
 700 006c 04       		.byte	4
 701 006d 82       		.byte	-126
 702 006e 06       		.byte	6
 703 006f 20       		.byte	32
 704 0070 07       		.byte	7
 705 0071 04       		.byte	4
 706 0072 09       		.byte	9
 707 0073 04       		.byte	4
 708 0074 0D       		.byte	13
 709 0075 20       		.byte	32
 710 0076 0E       		.byte	14
 711 0077 22       		.byte	34
 712 0078 10       		.byte	16
 713 0079 20       		.byte	32
 714 007a 11       		.byte	17
 715 007b 80       		.byte	-128
 716 007c 16       		.byte	22
 717 007d 02       		.byte	2
 718 007e 17       		.byte	23
 719 007f 1A       		.byte	26
 720 0080 18       		.byte	24
 721 0081 06       		.byte	6
 722 0082 19       		.byte	25
 723 0083 88       		.byte	-120
 724 0084 1B       		.byte	27
 725 0085 01       		.byte	1
 726 0086 1C       		.byte	28
 727 0087 40       		.byte	64
 728 0088 1D       		.byte	29
 729 0089 22       		.byte	34
 730 008a 1E       		.byte	30
 731 008b 21       		.byte	33
 732 008c 1F       		.byte	31
 733 008d 28       		.byte	40
 734 008e 21       		.byte	33
 735 008f 01       		.byte	1
 736 0090 25       		.byte	37
 737 0091 41       		.byte	65
 738 0092 26       		.byte	38
 739 0093 24       		.byte	36
 740 0094 2D       		.byte	45
 741 0095 80       		.byte	-128
 742 0096 2F       		.byte	47
 743 0097 28       		.byte	40
 744 0098 32       		.byte	50
 745 0099 04       		.byte	4
 746 009a 36       		.byte	54
 747 009b 20       		.byte	32
 748 009c 37       		.byte	55
 749 009d 06       		.byte	6
 750 009e 3D       		.byte	61
 751 009f 02       		.byte	2
 752 00a0 3E       		.byte	62
 753 00a1 A8       		.byte	-88
 754 00a2 45       		.byte	69
 755 00a3 22       		.byte	34
ARM GAS  C:\Users\Larry\AppData\Local\Temp\cceDrtmg.s 			page 26


 756 00a4 47       		.byte	71
 757 00a5 44       		.byte	68
 758 00a6 4C       		.byte	76
 759 00a7 20       		.byte	32
 760 00a8 4D       		.byte	77
 761 00a9 80       		.byte	-128
 762 00aa 54       		.byte	84
 763 00ab 10       		.byte	16
 764 00ac 5A       		.byte	90
 765 00ad 01       		.byte	1
 766 00ae 5E       		.byte	94
 767 00af 08       		.byte	8
 768 00b0 60       		.byte	96
 769 00b1 04       		.byte	4
 770 00b2 63       		.byte	99
 771 00b3 02       		.byte	2
 772 00b4 6E       		.byte	110
 773 00b5 14       		.byte	20
 774 00b6 6F       		.byte	111
 775 00b7 01       		.byte	1
 776 00b8 76       		.byte	118
 777 00b9 28       		.byte	40
 778 00ba 77       		.byte	119
 779 00bb 0A       		.byte	10
 780 00bc 89       		.byte	-119
 781 00bd 01       		.byte	1
 782 00be C0       		.byte	-64
 783 00bf F3       		.byte	-13
 784 00c0 C2       		.byte	-62
 785 00c1 E4       		.byte	-28
 786 00c2 C4       		.byte	-60
 787 00c3 F5       		.byte	-11
 788 00c4 CA       		.byte	-54
 789 00c5 70       		.byte	112
 790 00c6 CC       		.byte	-52
 791 00c7 E2       		.byte	-30
 792 00c8 CE       		.byte	-50
 793 00c9 F0       		.byte	-16
 794 00ca D0       		.byte	-48
 795 00cb F0       		.byte	-16
 796 00cc D2       		.byte	-46
 797 00cd 10       		.byte	16
 798 00ce D6       		.byte	-42
 799 00cf 41       		.byte	65
 800 00d0 D8       		.byte	-40
 801 00d1 0C       		.byte	12
 802 00d2 E2       		.byte	-30
 803 00d3 20       		.byte	32
 804 00d4 00       		.byte	0
 805 00d5 13       		.byte	19
 806 00d6 01       		.byte	1
 807 00d7 01       		.byte	1
 808 00d8 02       		.byte	2
 809 00d9 04       		.byte	4
 810 00da 03       		.byte	3
 811 00db 0A       		.byte	10
 812 00dc 04       		.byte	4
ARM GAS  C:\Users\Larry\AppData\Local\Temp\cceDrtmg.s 			page 27


 813 00dd 80       		.byte	-128
 814 00de 05       		.byte	5
 815 00df 13       		.byte	19
 816 00e0 06       		.byte	6
 817 00e1 20       		.byte	32
 818 00e2 08       		.byte	8
 819 00e3 20       		.byte	32
 820 00e4 09       		.byte	9
 821 00e5 13       		.byte	19
 822 00e6 0A       		.byte	10
 823 00e7 C0       		.byte	-64
 824 00e8 0E       		.byte	14
 825 00e9 08       		.byte	8
 826 00ea 10       		.byte	16
 827 00eb 0A       		.byte	10
 828 00ec 11       		.byte	17
 829 00ed 10       		.byte	16
 830 00ee 12       		.byte	18
 831 00ef 14       		.byte	20
 832 00f0 18       		.byte	24
 833 00f1 E0       		.byte	-32
 834 00f2 19       		.byte	25
 835 00f3 02       		.byte	2
 836 00f4 1B       		.byte	27
 837 00f5 09       		.byte	9
 838 00f6 1C       		.byte	28
 839 00f7 E0       		.byte	-32
 840 00f8 20       		.byte	32
 841 00f9 40       		.byte	64
 842 00fa 22       		.byte	34
 843 00fb 20       		.byte	32
 844 00fc 24       		.byte	36
 845 00fd 13       		.byte	19
 846 00fe 26       		.byte	38
 847 00ff 0C       		.byte	12
 848 0100 2A       		.byte	42
 849 0101 15       		.byte	21
 850 0102 2B       		.byte	43
 851 0103 04       		.byte	4
 852 0104 2C       		.byte	44
 853 0105 03       		.byte	3
 854 0106 2E       		.byte	46
 855 0107 14       		.byte	20
 856 0108 30       		.byte	48
 857 0109 10       		.byte	16
 858 010a 31       		.byte	49
 859 010b 0C       		.byte	12
 860 010c 32       		.byte	50
 861 010d E0       		.byte	-32
 862 010e 33       		.byte	51
 863 010f 03       		.byte	3
 864 0110 34       		.byte	52
 865 0111 0F       		.byte	15
 866 0112 35       		.byte	53
 867 0113 10       		.byte	16
 868 0114 3A       		.byte	58
 869 0115 20       		.byte	32
ARM GAS  C:\Users\Larry\AppData\Local\Temp\cceDrtmg.s 			page 28


 870 0116 3E       		.byte	62
 871 0117 01       		.byte	1
 872 0118 3F       		.byte	63
 873 0119 01       		.byte	1
 874 011a 40       		.byte	64
 875 011b 32       		.byte	50
 876 011c 41       		.byte	65
 877 011d 01       		.byte	1
 878 011e 46       		.byte	70
 879 011f B0       		.byte	-80
 880 0120 47       		.byte	71
 881 0121 CE       		.byte	-50
 882 0122 48       		.byte	72
 883 0123 38       		.byte	56
 884 0124 49       		.byte	73
 885 0125 FF       		.byte	-1
 886 0126 4A       		.byte	74
 887 0127 FF       		.byte	-1
 888 0128 4B       		.byte	75
 889 0129 FF       		.byte	-1
 890 012a 4E       		.byte	78
 891 012b F0       		.byte	-16
 892 012c 4F       		.byte	79
 893 012d 44       		.byte	68
 894 012e 50       		.byte	80
 895 012f 0C       		.byte	12
 896 0130 54       		.byte	84
 897 0131 01       		.byte	1
 898 0132 58       		.byte	88
 899 0133 04       		.byte	4
 900 0134 59       		.byte	89
 901 0135 04       		.byte	4
 902 0136 5A       		.byte	90
 903 0137 04       		.byte	4
 904 0138 5B       		.byte	91
 905 0139 04       		.byte	4
 906 013a 5F       		.byte	95
 907 013b 01       		.byte	1
 908 013c 66       		.byte	102
 909 013d C0       		.byte	-64
 910 013e 6A       		.byte	106
 911 013f 40       		.byte	64
 912 0140 6B       		.byte	107
 913 0141 02       		.byte	2
 914 0142 84       		.byte	-124
 915 0143 14       		.byte	20
 916 0144 85       		.byte	-123
 917 0145 80       		.byte	-128
 918 0146 87       		.byte	-121
 919 0147 13       		.byte	19
 920 0148 8C       		.byte	-116
 921 0149 0C       		.byte	12
 922 014a 8E       		.byte	-114
 923 014b 71       		.byte	113
 924 014c 8F       		.byte	-113
 925 014d 0C       		.byte	12
 926 014e 94       		.byte	-108
ARM GAS  C:\Users\Larry\AppData\Local\Temp\cceDrtmg.s 			page 29


 927 014f DC       		.byte	-36
 928 0150 95       		.byte	-107
 929 0151 2C       		.byte	44
 930 0152 96       		.byte	-106
 931 0153 22       		.byte	34
 932 0154 97       		.byte	-105
 933 0155 43       		.byte	67
 934 0156 99       		.byte	-103
 935 0157 71       		.byte	113
 936 0158 9A       		.byte	-102
 937 0159 03       		.byte	3
 938 015a 9B       		.byte	-101
 939 015b 06       		.byte	6
 940 015c 9C       		.byte	-100
 941 015d 09       		.byte	9
 942 015e 9E       		.byte	-98
 943 015f D0       		.byte	-48
 944 0160 9F       		.byte	-97
 945 0161 08       		.byte	8
 946 0162 A0       		.byte	-96
 947 0163 10       		.byte	16
 948 0164 A1       		.byte	-95
 949 0165 71       		.byte	113
 950 0166 A2       		.byte	-94
 951 0167 40       		.byte	64
 952 0168 A3       		.byte	-93
 953 0169 0E       		.byte	14
 954 016a A4       		.byte	-92
 955 016b 10       		.byte	16
 956 016c A6       		.byte	-90
 957 016d AC       		.byte	-84
 958 016e AA       		.byte	-86
 959 016f 20       		.byte	32
 960 0170 B0       		.byte	-80
 961 0171 E0       		.byte	-32
 962 0172 B1       		.byte	-79
 963 0173 C0       		.byte	-64
 964 0174 B3       		.byte	-77
 965 0175 0F       		.byte	15
 966 0176 B4       		.byte	-76
 967 0177 1F       		.byte	31
 968 0178 B5       		.byte	-75
 969 0179 30       		.byte	48
 970 017a B9       		.byte	-71
 971 017b 22       		.byte	34
 972 017c BA       		.byte	-70
 973 017d 02       		.byte	2
 974 017e BB       		.byte	-69
 975 017f 08       		.byte	8
 976 0180 BF       		.byte	-65
 977 0181 10       		.byte	16
 978 0182 C0       		.byte	-64
 979 0183 02       		.byte	2
 980 0184 C5       		.byte	-59
 981 0185 40       		.byte	64
 982 0186 C9       		.byte	-55
 983 0187 FF       		.byte	-1
ARM GAS  C:\Users\Larry\AppData\Local\Temp\cceDrtmg.s 			page 30


 984 0188 CA       		.byte	-54
 985 0189 07       		.byte	7
 986 018a CB       		.byte	-53
 987 018b FF       		.byte	-1
 988 018c CC       		.byte	-52
 989 018d 40       		.byte	64
 990 018e CD       		.byte	-51
 991 018f 20       		.byte	32
 992 0190 CE       		.byte	-50
 993 0191 F0       		.byte	-16
 994 0192 CF       		.byte	-49
 995 0193 05       		.byte	5
 996 0194 D0       		.byte	-48
 997 0195 08       		.byte	8
 998 0196 D8       		.byte	-40
 999 0197 04       		.byte	4
 1000 0198 D9       		.byte	-39
 1001 0199 04       		.byte	4
 1002 019a DA       		.byte	-38
 1003 019b 04       		.byte	4
 1004 019c DF       		.byte	-33
 1005 019d 01       		.byte	1
 1006 019e E0       		.byte	-32
 1007 019f 40       		.byte	64
 1008 01a0 E1       		.byte	-31
 1009 01a1 A8       		.byte	-88
 1010 01a2 E2       		.byte	-30
 1011 01a3 40       		.byte	64
 1012 01a4 E3       		.byte	-29
 1013 01a5 20       		.byte	32
 1014 01a6 02       		.byte	2
 1015 01a7 11       		.byte	17
 1016 01a8 04       		.byte	4
 1017 01a9 40       		.byte	64
 1018 01aa 05       		.byte	5
 1019 01ab 21       		.byte	33
 1020 01ac 07       		.byte	7
 1021 01ad 10       		.byte	16
 1022 01ae 09       		.byte	9
 1023 01af 08       		.byte	8
 1024 01b0 0A       		.byte	10
 1025 01b1 0A       		.byte	10
 1026 01b2 0C       		.byte	12
 1027 01b3 01       		.byte	1
 1028 01b4 0D       		.byte	13
 1029 01b5 40       		.byte	64
 1030 01b6 0E       		.byte	14
 1031 01b7 04       		.byte	4
 1032 01b8 10       		.byte	16
 1033 01b9 90       		.byte	-112
 1034 01ba 12       		.byte	18
 1035 01bb 04       		.byte	4
 1036 01bc 14       		.byte	20
 1037 01bd 10       		.byte	16
 1038 01be 16       		.byte	22
 1039 01bf 86       		.byte	-122
 1040 01c0 19       		.byte	25
ARM GAS  C:\Users\Larry\AppData\Local\Temp\cceDrtmg.s 			page 31


 1041 01c1 01       		.byte	1
 1042 01c2 1A       		.byte	26
 1043 01c3 08       		.byte	8
 1044 01c4 1D       		.byte	29
 1045 01c5 10       		.byte	16
 1046 01c6 1E       		.byte	30
 1047 01c7 40       		.byte	64
 1048 01c8 1F       		.byte	31
 1049 01c9 04       		.byte	4
 1050 01ca 20       		.byte	32
 1051 01cb 44       		.byte	68
 1052 01cc 21       		.byte	33
 1053 01cd 08       		.byte	8
 1054 01ce 22       		.byte	34
 1055 01cf 01       		.byte	1
 1056 01d0 27       		.byte	39
 1057 01d1 54       		.byte	84
 1058 01d2 29       		.byte	41
 1059 01d3 01       		.byte	1
 1060 01d4 2A       		.byte	42
 1061 01d5 01       		.byte	1
 1062 01d6 2D       		.byte	45
 1063 01d7 20       		.byte	32
 1064 01d8 2F       		.byte	47
 1065 01d9 04       		.byte	4
 1066 01da 30       		.byte	48
 1067 01db 90       		.byte	-112
 1068 01dc 31       		.byte	49
 1069 01dd 18       		.byte	24
 1070 01de 37       		.byte	55
 1071 01df 11       		.byte	17
 1072 01e0 38       		.byte	56
 1073 01e1 48       		.byte	72
 1074 01e2 3E       		.byte	62
 1075 01e3 14       		.byte	20
 1076 01e4 3F       		.byte	63
 1077 01e5 01       		.byte	1
 1078 01e6 40       		.byte	64
 1079 01e7 04       		.byte	4
 1080 01e8 44       		.byte	68
 1081 01e9 10       		.byte	16
 1082 01ea 46       		.byte	70
 1083 01eb 05       		.byte	5
 1084 01ec 48       		.byte	72
 1085 01ed 80       		.byte	-128
 1086 01ee 50       		.byte	80
 1087 01ef 04       		.byte	4
 1088 01f0 52       		.byte	82
 1089 01f1 04       		.byte	4
 1090 01f2 55       		.byte	85
 1091 01f3 04       		.byte	4
 1092 01f4 56       		.byte	86
 1093 01f5 12       		.byte	18
 1094 01f6 57       		.byte	87
 1095 01f7 08       		.byte	8
 1096 01f8 5C       		.byte	92
 1097 01f9 22       		.byte	34
ARM GAS  C:\Users\Larry\AppData\Local\Temp\cceDrtmg.s 			page 32


 1098 01fa 5D       		.byte	93
 1099 01fb 08       		.byte	8
 1100 01fc 5E       		.byte	94
 1101 01fd 40       		.byte	64
 1102 01fe 80       		.byte	-128
 1103 01ff 40       		.byte	64
 1104 0200 82       		.byte	-126
 1105 0201 80       		.byte	-128
 1106 0202 83       		.byte	-125
 1107 0203 01       		.byte	1
 1108 0204 84       		.byte	-124
 1109 0205 20       		.byte	32
 1110 0206 86       		.byte	-122
 1111 0207 02       		.byte	2
 1112 0208 88       		.byte	-120
 1113 0209 03       		.byte	3
 1114 020a 89       		.byte	-119
 1115 020b 08       		.byte	8
 1116 020c 8B       		.byte	-117
 1117 020d 08       		.byte	8
 1118 020e 91       		.byte	-111
 1119 020f 80       		.byte	-128
 1120 0210 92       		.byte	-110
 1121 0211 14       		.byte	20
 1122 0212 94       		.byte	-108
 1123 0213 80       		.byte	-128
 1124 0214 96       		.byte	-106
 1125 0215 08       		.byte	8
 1126 0216 97       		.byte	-105
 1127 0217 08       		.byte	8
 1128 0218 99       		.byte	-103
 1129 0219 08       		.byte	8
 1130 021a 9B       		.byte	-101
 1131 021b 01       		.byte	1
 1132 021c 9E       		.byte	-98
 1133 021d 80       		.byte	-128
 1134 021e 9F       		.byte	-97
 1135 021f 54       		.byte	84
 1136 0220 A5       		.byte	-91
 1137 0221 04       		.byte	4
 1138 0222 AE       		.byte	-82
 1139 0223 02       		.byte	2
 1140 0224 AF       		.byte	-81
 1141 0225 04       		.byte	4
 1142 0226 B5       		.byte	-75
 1143 0227 40       		.byte	64
 1144 0228 B6       		.byte	-74
 1145 0229 31       		.byte	49
 1146 022a C0       		.byte	-64
 1147 022b F5       		.byte	-11
 1148 022c C2       		.byte	-62
 1149 022d D7       		.byte	-41
 1150 022e C4       		.byte	-60
 1151 022f FE       		.byte	-2
 1152 0230 CA       		.byte	-54
 1153 0231 21       		.byte	33
 1154 0232 CC       		.byte	-52
ARM GAS  C:\Users\Larry\AppData\Local\Temp\cceDrtmg.s 			page 33


 1155 0233 AE       		.byte	-82
 1156 0234 CE       		.byte	-50
 1157 0235 EA       		.byte	-22
 1158 0236 D0       		.byte	-48
 1159 0237 74       		.byte	116
 1160 0238 D6       		.byte	-42
 1161 0239 F0       		.byte	-16
 1162 023a 88       		.byte	-120
 1163 023b 02       		.byte	2
 1164 023c 0A       		.byte	10
 1165 023d 10       		.byte	16
 1166 023e 5C       		.byte	92
 1167 023f 02       		.byte	2
 1168 0240 82       		.byte	-126
 1169 0241 10       		.byte	16
 1170 0242 98       		.byte	-104
 1171 0243 02       		.byte	2
 1172 0244 C2       		.byte	-62
 1173 0245 10       		.byte	16
 1174 0246 D6       		.byte	-42
 1175 0247 80       		.byte	-128
 1176 0248 E0       		.byte	-32
 1177 0249 80       		.byte	-128
 1178 024a 10       		.byte	16
 1179 024b 01       		.byte	1
 1180 024c 11       		.byte	17
 1181 024d 01       		.byte	1
 1182 024e 0000     		.align	2
 1183              		.type	BS_UDB_0_1_1_CONFIG_VAL.4876, %object
 1184              		.size	BS_UDB_0_1_1_CONFIG_VAL.4876, 128
 1185              	BS_UDB_0_1_1_CONFIG_VAL.4876:
 1186 0250 FF       		.byte	-1
 1187 0251 00       		.byte	0
 1188 0252 00       		.byte	0
 1189 0253 04       		.byte	4
 1190 0254 0C       		.byte	12
 1191 0255 08       		.byte	8
 1192 0256 00       		.byte	0
 1193 0257 00       		.byte	0
 1194 0258 00       		.byte	0
 1195 0259 18       		.byte	24
 1196 025a F3       		.byte	-13
 1197 025b 00       		.byte	0
 1198 025c 41       		.byte	65
 1199 025d 04       		.byte	4
 1200 025e 00       		.byte	0
 1201 025f 80       		.byte	-128
 1202 0260 00       		.byte	0
 1203 0261 10       		.byte	16
 1204 0262 00       		.byte	0
 1205 0263 00       		.byte	0
 1206 0264 0F       		.byte	15
 1207 0265 00       		.byte	0
 1208 0266 F0       		.byte	-16
 1209 0267 03       		.byte	3
 1210 0268 F3       		.byte	-13
 1211 0269 3C       		.byte	60
ARM GAS  C:\Users\Larry\AppData\Local\Temp\cceDrtmg.s 			page 34


 1212 026a 0C       		.byte	12
 1213 026b 42       		.byte	66
 1214 026c 1C       		.byte	28
 1215 026d 00       		.byte	0
 1216 026e E3       		.byte	-29
 1217 026f 00       		.byte	0
 1218 0270 08       		.byte	8
 1219 0271 00       		.byte	0
 1220 0272 00       		.byte	0
 1221 0273 00       		.byte	0
 1222 0274 04       		.byte	4
 1223 0275 67       		.byte	103
 1224 0276 00       		.byte	0
 1225 0277 18       		.byte	24
 1226 0278 82       		.byte	-126
 1227 0279 3C       		.byte	60
 1228 027a 00       		.byte	0
 1229 027b 41       		.byte	65
 1230 027c C3       		.byte	-61
 1231 027d 7F       		.byte	127
 1232 027e 00       		.byte	0
 1233 027f 00       		.byte	0
 1234 0280 1C       		.byte	28
 1235 0281 80       		.byte	-128
 1236 0282 2C       		.byte	44
 1237 0283 20       		.byte	32
 1238 0284 0F       		.byte	15
 1239 0285 1F       		.byte	31
 1240 0286 C0       		.byte	-64
 1241 0287 40       		.byte	64
 1242 0288 00       		.byte	0
 1243 0289 80       		.byte	-128
 1244 028a 28       		.byte	40
 1245 028b 20       		.byte	32
 1246 028c 00       		.byte	0
 1247 028d 00       		.byte	0
 1248 028e 00       		.byte	0
 1249 028f 04       		.byte	4
 1250 0290 23       		.byte	35
 1251 0291 05       		.byte	5
 1252 0292 04       		.byte	4
 1253 0293 00       		.byte	0
 1254 0294 01       		.byte	1
 1255 0295 0C       		.byte	12
 1256 0296 E0       		.byte	-32
 1257 0297 00       		.byte	0
 1258 0298 09       		.byte	9
 1259 0299 FF       		.byte	-1
 1260 029a FF       		.byte	-1
 1261 029b FF       		.byte	-1
 1262 029c 62       		.byte	98
 1263 029d A0       		.byte	-96
 1264 029e F0       		.byte	-16
 1265 029f 41       		.byte	65
 1266 02a0 0C       		.byte	12
 1267 02a1 00       		.byte	0
 1268 02a2 00       		.byte	0
ARM GAS  C:\Users\Larry\AppData\Local\Temp\cceDrtmg.s 			page 35


 1269 02a3 00       		.byte	0
 1270 02a4 00       		.byte	0
 1271 02a5 00       		.byte	0
 1272 02a6 02       		.byte	2
 1273 02a7 12       		.byte	18
 1274 02a8 04       		.byte	4
 1275 02a9 04       		.byte	4
 1276 02aa 04       		.byte	4
 1277 02ab 04       		.byte	4
 1278 02ac 00       		.byte	0
 1279 02ad 00       		.byte	0
 1280 02ae 00       		.byte	0
 1281 02af 01       		.byte	1
 1282 02b0 00       		.byte	0
 1283 02b1 00       		.byte	0
 1284 02b2 00       		.byte	0
 1285 02b3 00       		.byte	0
 1286 02b4 00       		.byte	0
 1287 02b5 00       		.byte	0
 1288 02b6 40       		.byte	64
 1289 02b7 02       		.byte	2
 1290 02b8 00       		.byte	0
 1291 02b9 10       		.byte	16
 1292 02ba 30       		.byte	48
 1293 02bb 10       		.byte	16
 1294 02bc 00       		.byte	0
 1295 02bd 10       		.byte	16
 1296 02be 10       		.byte	16
 1297 02bf 12       		.byte	18
 1298 02c0 00       		.byte	0
 1299 02c1 00       		.byte	0
 1300 02c2 00       		.byte	0
 1301 02c3 00       		.byte	0
 1302 02c4 00       		.byte	0
 1303 02c5 00       		.byte	0
 1304 02c6 00       		.byte	0
 1305 02c7 00       		.byte	0
 1306 02c8 00       		.byte	0
 1307 02c9 00       		.byte	0
 1308 02ca 00       		.byte	0
 1309 02cb 00       		.byte	0
 1310 02cc 00       		.byte	0
 1311 02cd 00       		.byte	0
 1312 02ce 00       		.byte	0
 1313 02cf 00       		.byte	0
 1314              		.text
 1315              	.Letext0:
 1316              		.file 2 "c:\\program files (x86)\\cypress\\psoc creator\\4.2\\psoc creator\\import\\gnu\\arm\\5.4.
 1317              		.file 3 "Generated_Source\\PSoC4\\cytypes.h"