ARM GAS  C:\Users\Larry\AppData\Local\Temp\ccpNFOcl.s 			page 1


   1              		.syntax unified
   2              		.cpu cortex-m0
   3              		.fpu softvfp
   4              		.eabi_attribute 20, 1
   5              		.eabi_attribute 21, 1
   6              		.eabi_attribute 23, 3
   7              		.eabi_attribute 24, 1
   8              		.eabi_attribute 25, 1
   9              		.eabi_attribute 26, 1
  10              		.eabi_attribute 30, 6
  11              		.eabi_attribute 34, 0
  12              		.eabi_attribute 18, 4
  13              		.thumb
  14              		.syntax unified
  15              		.file	"main.c"
  16              		.text
  17              	.Ltext0:
  18              		.cfi_sections	.debug_frame
  19              		.section	.text.getValidByte,"ax",%progbits
  20              		.align	2
  21              		.global	getValidByte
  22              		.code	16
  23              		.thumb_func
  24              		.type	getValidByte, %function
  25              	getValidByte:
  26              	.LFB32:
  27              		.file 1 "main.c"
   1:main.c        **** /* ========================================
   2:main.c        ****  *
   3:main.c        ****  * Copyright YOUR COMPANY, THE YEAR
   4:main.c        ****  * All Rights Reserved
   5:main.c        ****  * UNPUBLISHED, LICENSED SOFTWARE.
   6:main.c        ****  *
   7:main.c        ****  * CONFIDENTIAL AND PROPRIETARY INFORMATION
   8:main.c        ****  * WHICH IS THE PROPERTY OF your company.
   9:main.c        ****  *
  10:main.c        ****  * ========================================
  11:main.c        **** */
  12:main.c        **** #include "project.h"
  13:main.c        **** 
  14:main.c        **** 
  15:main.c        **** uint8 getValidByte(){
  28              		.loc 1 15 0
  29              		.cfi_startproc
  30              		@ args = 0, pretend = 0, frame = 8
  31              		@ frame_needed = 1, uses_anonymous_args = 0
  32 0000 80B5     		push	{r7, lr}
  33              		.cfi_def_cfa_offset 8
  34              		.cfi_offset 7, -8
  35              		.cfi_offset 14, -4
  36 0002 82B0     		sub	sp, sp, #8
  37              		.cfi_def_cfa_offset 16
  38 0004 00AF     		add	r7, sp, #0
  39              		.cfi_def_cfa_register 7
  16:main.c        ****     uint8 retval = 0u;
  40              		.loc 1 16 0
  41 0006 FB1D     		adds	r3, r7, #7
ARM GAS  C:\Users\Larry\AppData\Local\Temp\ccpNFOcl.s 			page 2


  42 0008 0022     		movs	r2, #0
  43 000a 1A70     		strb	r2, [r3]
  17:main.c        ****     while(UART_GetRxBufferSize() < 1);
  44              		.loc 1 17 0
  45 000c C046     		nop
  46              	.L2:
  47              		.loc 1 17 0 is_stmt 0 discriminator 1
  48 000e FFF7FEFF 		bl	UART_GetRxBufferSize
  49 0012 031E     		subs	r3, r0, #0
  50 0014 FBD0     		beq	.L2
  18:main.c        ****     retval = UART_GetByte();
  51              		.loc 1 18 0 is_stmt 1
  52 0016 FFF7FEFF 		bl	UART_GetByte
  53 001a 0300     		movs	r3, r0
  54 001c 1A00     		movs	r2, r3
  55 001e FB1D     		adds	r3, r7, #7
  56 0020 1A70     		strb	r2, [r3]
  19:main.c        ****     return retval;
  57              		.loc 1 19 0
  58 0022 FB1D     		adds	r3, r7, #7
  59 0024 1B78     		ldrb	r3, [r3]
  20:main.c        **** }
  60              		.loc 1 20 0
  61 0026 1800     		movs	r0, r3
  62 0028 BD46     		mov	sp, r7
  63 002a 02B0     		add	sp, sp, #8
  64              		@ sp needed
  65 002c 80BD     		pop	{r7, pc}
  66              		.cfi_endproc
  67              	.LFE32:
  68              		.size	getValidByte, .-getValidByte
  69              		.section	.text.read,"ax",%progbits
  70              		.align	2
  71              		.global	read
  72              		.code	16
  73              		.thumb_func
  74              		.type	read, %function
  75              	read:
  76              	.LFB33:
  21:main.c        **** 
  22:main.c        **** 
  23:main.c        **** uint8 read(char* obuf){
  77              		.loc 1 23 0
  78              		.cfi_startproc
  79              		@ args = 0, pretend = 0, frame = 48
  80              		@ frame_needed = 1, uses_anonymous_args = 0
  81 0000 90B5     		push	{r4, r7, lr}
  82              		.cfi_def_cfa_offset 12
  83              		.cfi_offset 4, -12
  84              		.cfi_offset 7, -8
  85              		.cfi_offset 14, -4
  86 0002 8DB0     		sub	sp, sp, #52
  87              		.cfi_def_cfa_offset 64
  88 0004 00AF     		add	r7, sp, #0
  89              		.cfi_def_cfa_register 7
  90 0006 7860     		str	r0, [r7, #4]
  24:main.c        ****     char strung[32];
ARM GAS  C:\Users\Larry\AppData\Local\Temp\ccpNFOcl.s 			page 3


  25:main.c        ****     uint8 i = 0;
  91              		.loc 1 25 0
  92 0008 2F23     		movs	r3, #47
  93 000a FB18     		adds	r3, r7, r3
  94 000c 0022     		movs	r2, #0
  95 000e 1A70     		strb	r2, [r3]
  96              	.L7:
  97              	.LBB2:
  26:main.c        ****     while(1){
  27:main.c        ****         char thisByte = getValidByte();
  98              		.loc 1 27 0
  99 0010 2E23     		movs	r3, #46
 100 0012 FC18     		adds	r4, r7, r3
 101 0014 FFF7FEFF 		bl	getValidByte
 102 0018 0300     		movs	r3, r0
 103 001a 2370     		strb	r3, [r4]
  28:main.c        ****         UART_PutChar(thisByte);
 104              		.loc 1 28 0
 105 001c 2E23     		movs	r3, #46
 106 001e FB18     		adds	r3, r7, r3
 107 0020 1B78     		ldrb	r3, [r3]
 108 0022 1800     		movs	r0, r3
 109 0024 FFF7FEFF 		bl	UART_PutChar
  29:main.c        ****         if (thisByte == '!'){
 110              		.loc 1 29 0
 111 0028 2E23     		movs	r3, #46
 112 002a FB18     		adds	r3, r7, r3
 113 002c 1B78     		ldrb	r3, [r3]
 114 002e 212B     		cmp	r3, #33
 115 0030 10D0     		beq	.L10
  30:main.c        ****             break;
  31:main.c        ****         }
  32:main.c        ****         strung[i] = thisByte;
 116              		.loc 1 32 0
 117 0032 2F23     		movs	r3, #47
 118 0034 FB18     		adds	r3, r7, r3
 119 0036 1B78     		ldrb	r3, [r3]
 120 0038 0C22     		movs	r2, #12
 121 003a BA18     		adds	r2, r7, r2
 122 003c 2E21     		movs	r1, #46
 123 003e 7918     		adds	r1, r7, r1
 124 0040 0978     		ldrb	r1, [r1]
 125 0042 D154     		strb	r1, [r2, r3]
  33:main.c        ****         i++;
 126              		.loc 1 33 0
 127 0044 2F23     		movs	r3, #47
 128 0046 FB18     		adds	r3, r7, r3
 129 0048 1A78     		ldrb	r2, [r3]
 130 004a 2F23     		movs	r3, #47
 131 004c FB18     		adds	r3, r7, r3
 132 004e 0132     		adds	r2, r2, #1
 133 0050 1A70     		strb	r2, [r3]
 134              	.LBE2:
  34:main.c        ****     }
 135              		.loc 1 34 0
 136 0052 DDE7     		b	.L7
 137              	.L10:
ARM GAS  C:\Users\Larry\AppData\Local\Temp\ccpNFOcl.s 			page 4


 138              	.LBB3:
  30:main.c        ****             break;
 139              		.loc 1 30 0
 140 0054 C046     		nop
 141              	.LBE3:
  35:main.c        ****     
  36:main.c        ****     memcpy(obuf, strung, i);
 142              		.loc 1 36 0
 143 0056 2F23     		movs	r3, #47
 144 0058 FB18     		adds	r3, r7, r3
 145 005a 1A78     		ldrb	r2, [r3]
 146 005c 0C23     		movs	r3, #12
 147 005e F918     		adds	r1, r7, r3
 148 0060 7B68     		ldr	r3, [r7, #4]
 149 0062 1800     		movs	r0, r3
 150 0064 FFF7FEFF 		bl	memcpy
  37:main.c        ****     return i;
 151              		.loc 1 37 0
 152 0068 2F23     		movs	r3, #47
 153 006a FB18     		adds	r3, r7, r3
 154 006c 1B78     		ldrb	r3, [r3]
  38:main.c        **** }
 155              		.loc 1 38 0
 156 006e 1800     		movs	r0, r3
 157 0070 BD46     		mov	sp, r7
 158 0072 0DB0     		add	sp, sp, #52
 159              		@ sp needed
 160 0074 90BD     		pop	{r4, r7, pc}
 161              		.cfi_endproc
 162              	.LFE33:
 163              		.size	read, .-read
 164 0076 C046     		.section	.rodata
 165              		.align	2
 166              	.LC0:
 167 0000 594F5520 		.ascii	"YOU WIN!!!\000"
 167      57494E21 
 167      212100
 168              		.section	.text.get_flag,"ax",%progbits
 169              		.align	2
 170              		.global	get_flag
 171              		.code	16
 172              		.thumb_func
 173              		.type	get_flag, %function
 174              	get_flag:
 175              	.LFB34:
  39:main.c        **** 
  40:main.c        **** void get_flag(){
 176              		.loc 1 40 0
 177              		.cfi_startproc
 178              		@ args = 0, pretend = 0, frame = 0
 179              		@ frame_needed = 1, uses_anonymous_args = 0
 180 0000 80B5     		push	{r7, lr}
 181              		.cfi_def_cfa_offset 8
 182              		.cfi_offset 7, -8
 183              		.cfi_offset 14, -4
 184 0002 00AF     		add	r7, sp, #0
 185              		.cfi_def_cfa_register 7
ARM GAS  C:\Users\Larry\AppData\Local\Temp\ccpNFOcl.s 			page 5


 186              	.L12:
  41:main.c        ****     while(1){
  42:main.c        ****         UART_PutString("YOU WIN!!!");
 187              		.loc 1 42 0 discriminator 1
 188 0004 024B     		ldr	r3, .L13
 189 0006 1800     		movs	r0, r3
 190 0008 FFF7FEFF 		bl	UART_PutString
  43:main.c        ****     }
 191              		.loc 1 43 0 discriminator 1
 192 000c FAE7     		b	.L12
 193              	.L14:
 194 000e C046     		.align	2
 195              	.L13:
 196 0010 00000000 		.word	.LC0
 197              		.cfi_endproc
 198              	.LFE34:
 199              		.size	get_flag, .-get_flag
 200              		.section	.rodata
 201 000b 00       		.align	2
 202              	.LC2:
 203 000c 68656C6C 		.ascii	"hello\000"
 203      6F00
 204              		.section	.text.main,"ax",%progbits
 205              		.align	2
 206              		.global	main
 207              		.code	16
 208              		.thumb_func
 209              		.type	main, %function
 210              	main:
 211              	.LFB35:
  44:main.c        **** }
  45:main.c        **** 
  46:main.c        **** int main(void)
  47:main.c        **** {
 212              		.loc 1 47 0
 213              		.cfi_startproc
 214              		@ args = 0, pretend = 0, frame = 88
 215              		@ frame_needed = 1, uses_anonymous_args = 0
 216 0000 F0B5     		push	{r4, r5, r6, r7, lr}
 217              		.cfi_def_cfa_offset 20
 218              		.cfi_offset 4, -20
 219              		.cfi_offset 5, -16
 220              		.cfi_offset 6, -12
 221              		.cfi_offset 7, -8
 222              		.cfi_offset 14, -4
 223 0002 97B0     		sub	sp, sp, #92
 224              		.cfi_def_cfa_offset 112
 225 0004 00AF     		add	r7, sp, #0
 226              		.cfi_def_cfa_register 7
  48:main.c        ****     CyGlobalIntEnable; /* Enable global interrupts. */
 227              		.loc 1 48 0
 228              		.syntax divided
 229              	@ 48 "main.c" 1
 230 0006 62B6     		CPSIE   i
 231              	@ 0 "" 2
  49:main.c        **** 
  50:main.c        ****     /* Place your initialization/startup code here (e.g. MyInst_Start()) */
ARM GAS  C:\Users\Larry\AppData\Local\Temp\ccpNFOcl.s 			page 6


  51:main.c        ****     UART_Start();
 232              		.loc 1 51 0
 233              		.thumb
 234              		.syntax unified
 235 0008 FFF7FEFF 		bl	UART_Start
  52:main.c        ****     //char dummy[1] ;
  53:main.c        ****     //dummy[0] = 0;
  54:main.c        ****     char * password = "hello";
 236              		.loc 1 54 0
 237 000c 3B4B     		ldr	r3, .L20
 238 000e 3B65     		str	r3, [r7, #80]
 239              	.L19:
 240              	.LBB4:
  55:main.c        ****     
  56:main.c        ****     for(;;)
  57:main.c        ****     {
 241              		.loc 1 57 0
 242 0010 6B46     		mov	r3, sp
 243 0012 7B60     		str	r3, [r7, #4]
  58:main.c        ****       char strunged[32];
  59:main.c        ****       uint8 i = read(strunged);
 244              		.loc 1 59 0
 245 0014 2F23     		movs	r3, #47
 246 0016 2022     		movs	r2, #32
 247 0018 BA18     		adds	r2, r7, r2
 248 001a D618     		adds	r6, r2, r3
 249 001c 2423     		movs	r3, #36
 250 001e FB18     		adds	r3, r7, r3
 251 0020 1800     		movs	r0, r3
 252 0022 FFF7FEFF 		bl	read
 253 0026 0300     		movs	r3, r0
 254 0028 3370     		strb	r3, [r6]
  60:main.c        ****       char strung2electricboogaloo[i + 1];
 255              		.loc 1 60 0
 256 002a 2F23     		movs	r3, #47
 257 002c 2022     		movs	r2, #32
 258 002e 9446     		mov	ip, r2
 259 0030 BC44     		add	ip, ip, r7
 260 0032 6344     		add	r3, r3, ip
 261 0034 1B78     		ldrb	r3, [r3]
 262 0036 0133     		adds	r3, r3, #1
 263 0038 5A1E     		subs	r2, r3, #1
 264 003a BA64     		str	r2, [r7, #72]
 265 003c 1A00     		movs	r2, r3
 266 003e 3A61     		str	r2, [r7, #16]
 267 0040 0022     		movs	r2, #0
 268 0042 7A61     		str	r2, [r7, #20]
 269 0044 3869     		ldr	r0, [r7, #16]
 270 0046 7969     		ldr	r1, [r7, #20]
 271 0048 0200     		movs	r2, r0
 272 004a 520F     		lsrs	r2, r2, #29
 273 004c 0E00     		movs	r6, r1
 274 004e F500     		lsls	r5, r6, #3
 275 0050 1543     		orrs	r5, r2
 276 0052 0200     		movs	r2, r0
 277 0054 D400     		lsls	r4, r2, #3
 278 0056 1A00     		movs	r2, r3
ARM GAS  C:\Users\Larry\AppData\Local\Temp\ccpNFOcl.s 			page 7


 279 0058 BA60     		str	r2, [r7, #8]
 280 005a 0022     		movs	r2, #0
 281 005c FA60     		str	r2, [r7, #12]
 282 005e B868     		ldr	r0, [r7, #8]
 283 0060 F968     		ldr	r1, [r7, #12]
 284 0062 0200     		movs	r2, r0
 285 0064 520F     		lsrs	r2, r2, #29
 286 0066 0E00     		movs	r6, r1
 287 0068 F600     		lsls	r6, r6, #3
 288 006a FE61     		str	r6, [r7, #28]
 289 006c FE69     		ldr	r6, [r7, #28]
 290 006e 1643     		orrs	r6, r2
 291 0070 FE61     		str	r6, [r7, #28]
 292 0072 0200     		movs	r2, r0
 293 0074 D200     		lsls	r2, r2, #3
 294 0076 BA61     		str	r2, [r7, #24]
 295 0078 0733     		adds	r3, r3, #7
 296 007a DB08     		lsrs	r3, r3, #3
 297 007c DB00     		lsls	r3, r3, #3
 298 007e 6A46     		mov	r2, sp
 299 0080 D31A     		subs	r3, r2, r3
 300 0082 9D46     		mov	sp, r3
 301 0084 6B46     		mov	r3, sp
 302 0086 0033     		adds	r3, r3, #0
 303 0088 7B64     		str	r3, [r7, #68]
 304              	.LBB5:
  61:main.c        ****       for(int k = i-1; k >= 0; k--){
 305              		.loc 1 61 0
 306 008a 2F23     		movs	r3, #47
 307 008c 2022     		movs	r2, #32
 308 008e 9446     		mov	ip, r2
 309 0090 BC44     		add	ip, ip, r7
 310 0092 6344     		add	r3, r3, ip
 311 0094 1B78     		ldrb	r3, [r3]
 312 0096 013B     		subs	r3, r3, #1
 313 0098 7B65     		str	r3, [r7, #84]
 314 009a 12E0     		b	.L16
 315              	.L17:
  62:main.c        ****         strung2electricboogaloo[i-k-1] = strunged[k];
 316              		.loc 1 62 0 discriminator 3
 317 009c 2F23     		movs	r3, #47
 318 009e 2022     		movs	r2, #32
 319 00a0 9446     		mov	ip, r2
 320 00a2 BC44     		add	ip, ip, r7
 321 00a4 6344     		add	r3, r3, ip
 322 00a6 1A78     		ldrb	r2, [r3]
 323 00a8 7B6D     		ldr	r3, [r7, #84]
 324 00aa D31A     		subs	r3, r2, r3
 325 00ac 013B     		subs	r3, r3, #1
 326 00ae 2422     		movs	r2, #36
 327 00b0 B918     		adds	r1, r7, r2
 328 00b2 7A6D     		ldr	r2, [r7, #84]
 329 00b4 8A18     		adds	r2, r1, r2
 330 00b6 1178     		ldrb	r1, [r2]
 331 00b8 7A6C     		ldr	r2, [r7, #68]
 332 00ba D154     		strb	r1, [r2, r3]
  61:main.c        ****       for(int k = i-1; k >= 0; k--){
ARM GAS  C:\Users\Larry\AppData\Local\Temp\ccpNFOcl.s 			page 8


 333              		.loc 1 61 0 discriminator 3
 334 00bc 7B6D     		ldr	r3, [r7, #84]
 335 00be 013B     		subs	r3, r3, #1
 336 00c0 7B65     		str	r3, [r7, #84]
 337              	.L16:
  61:main.c        ****       for(int k = i-1; k >= 0; k--){
 338              		.loc 1 61 0 is_stmt 0 discriminator 1
 339 00c2 7B6D     		ldr	r3, [r7, #84]
 340 00c4 002B     		cmp	r3, #0
 341 00c6 E9DA     		bge	.L17
 342              	.LBE5:
  63:main.c        ****       }
  64:main.c        ****       strung2electricboogaloo[i] = '!';
 343              		.loc 1 64 0 is_stmt 1
 344 00c8 2F23     		movs	r3, #47
 345 00ca 2022     		movs	r2, #32
 346 00cc 9446     		mov	ip, r2
 347 00ce BC44     		add	ip, ip, r7
 348 00d0 6344     		add	r3, r3, ip
 349 00d2 1B78     		ldrb	r3, [r3]
 350 00d4 7A6C     		ldr	r2, [r7, #68]
 351 00d6 2121     		movs	r1, #33
 352 00d8 D154     		strb	r1, [r2, r3]
  65:main.c        ****       //strung2electricboogaloo[i + 1] = '\x00';
  66:main.c        ****       UART_PutChar('\n');
 353              		.loc 1 66 0
 354 00da 0A20     		movs	r0, #10
 355 00dc FFF7FEFF 		bl	UART_PutChar
  67:main.c        ****       UART_PutString(strung2electricboogaloo);
 356              		.loc 1 67 0
 357 00e0 7B6C     		ldr	r3, [r7, #68]
 358 00e2 1800     		movs	r0, r3
 359 00e4 FFF7FEFF 		bl	UART_PutString
  68:main.c        ****       
  69:main.c        ****       if(strung2electricboogaloo == password){
 360              		.loc 1 69 0
 361 00e8 7A6C     		ldr	r2, [r7, #68]
 362 00ea 3B6D     		ldr	r3, [r7, #80]
 363 00ec 9A42     		cmp	r2, r3
 364 00ee 01D1     		bne	.L18
  70:main.c        ****          get_flag();   
 365              		.loc 1 70 0
 366 00f0 FFF7FEFF 		bl	get_flag
 367              	.L18:
 368 00f4 7B68     		ldr	r3, [r7, #4]
 369 00f6 9D46     		mov	sp, r3
 370              	.LBE4:
  71:main.c        ****       }
  72:main.c        ****     }
 371              		.loc 1 72 0
 372 00f8 8AE7     		b	.L19
 373              	.L21:
 374 00fa C046     		.align	2
 375              	.L20:
 376 00fc 0C000000 		.word	.LC2
 377              		.cfi_endproc
 378              	.LFE35:
ARM GAS  C:\Users\Larry\AppData\Local\Temp\ccpNFOcl.s 			page 9


 379              		.size	main, .-main
 380              		.text
 381              	.Letext0:
 382              		.file 2 "Generated_Source\\PSoC4/cytypes.h"